(dp1
S'id_to_char'
p2
(dp3
I0
Ve
sI1
Vt
sI2
Va
sI3
Vi
sI4
Vn
sI5
Vo
sI6
Vs
sI7
Vr
sI8
Vl
sI9
Vc
sI10
Vd
sI11
Vh
sI12
Vp
sI13
Vu
sI14
Vm
sI15
Vf
sI16
Vg
sI17
Vy
sI18
Vw
sI19
Vb
sI20
Vv
sI21
V.
sI22
V0
sI23
V,
sI24
V-
sI25
V)
sI26
V(
sI27
Vx
sI28
VA
sI29
VT
sI30
VC
sI31
VO
sI32
Vk
sI33
VS
sI34
VH
sI35
Vz
sI36
VM
sI37
VP
sI38
VN
sI39
VD
sI40
VR
sI41
VI
sI42
VB
sI43
VW
sI44
Vq
sI45
VL
sI46
VF
sI47
VG
sI48
VE
sI49
V^
sI50
VU
sI51
VV
sI52
V%
sI53
V/
sI54
V:
sI55
Vj
sI56
VZ
sI57
V'
sI58
VK
sI59
VY
sI60
V+
sI61
VJ
sI62
V;
sI63
V=
sI64
VX
sI65
VQ
sI66
V&
sI67
V*
sI68
V[
sI69
V]
sI70
V?
sI71
V>
ssS'id_to_tag'
p4
(dp5
I0
VO
sI1
VB-en_species
p6
sI2
VI-lat_species
p7
sI3
VB-lat_species
p8
sI4
VB-lat_genus
p9
sI5
VI-en_species
p10
sI6
VB-lat_fam
p11
ssS'id_to_word'
p12
(dp13
I0
S'<UNK>'
p14
sI1
V.
sI2
Vof
p15
sI3
Vthe
p16
sI4
V,
sI5
Vand
p17
sI6
Vin
p18
sI7
V-
sI8
V)
sI9
Vto
p19
sI10
V(
sI11
Va
sI12
Vthat
p20
sI13
Vwith
p21
sI14
Vwas
p22
sI15
Vby
p23
sI16
Vfor
p24
sI17
Vis
p25
sI18
VThe
p26
sI19
Vwere
p27
sI20
Von
p28
sI21
Vplants
p29
sI22
Vfrom
p30
sI23
Vroot
p31
sI24
Vleaf
p32
sI25
Vplant
p33
sI26
Vwater
p34
sI27
V00
p35
sI28
Vspecies
p36
sI29
Vas
p37
sI30
V0
sI31
VWe
p38
sI32
Vwe
p39
sI33
Vare
p40
sI34
Vbetween
p41
sI35
Vat
p42
sI36
Vexpression
p43
sI37
Vgenes
p44
sI38
Vinduced
p45
sI39
Vnot
p46
sI40
Vgrowth
p47
sI41
Vstress
p48
sI42
Vbut
p49
sI43
Van
p50
sI44
VIn
p51
sI45
Vduring
p52
sI46
Vleaves
p53
sI47
Vresponse
p54
sI48
Vresults
p55
sI49
VN
sI50
Vgene
p56
sI51
Vunder
p57
sI52
Vthis
p58
sI53
Vchanges
p59
sI54
Vhigh
p60
sI55
VArabidopsis
p61
sI56
Vacid
p62
sI57
Vcell
p63
sI58
Vor
p64
sI59
V%
sI60
Vconditions
p65
sI61
Vsoil
p66
sI62
Vformation
p67
sI63
Vcarbon
p68
sI64
Vtheir
p69
sI65
Vtwo
p70
sI66
Vbe
p71
sI67
Vdifferent
p72
sI68
Vroots
p73
sI69
Vshowed
p74
sI70
Vwhich
p75
sI71
VC
sI72
Vrice
p76
sI73
Vboth
p77
sI74
Vhydraulic
p78
sI75
VA
sI76
Vlight
p79
sI77
Vaccumulation
p80
sI78
Vincreased
p81
sI79
Vrelated
p82
sI80
Vxylem
p83
sI81
VCO(0
p84
sI82
Veffects
p85
sI83
Vresponses
p86
sI84
Vthese
p87
sI85
VCO0
p88
sI86
VZn
p89
sI87
Vcan
p90
sI88
Vdevelopment
p91
sI89
Vits
p92
sI90
Vmutant
p93
sI91
Vnitrogen
p94
sI92
Vshoot
p95
sI93
Vstomatal
p96
sI94
Vusing
p97
sI95
VThis
p98
sI96
Valso
p99
sI97
Vanalysis
p100
sI98
Vconcentrations
p101
sI99
Vconductance
p102
sI100
Veffect
p103
sI101
Vrole
p104
sI102
Vstudy
p105
sI103
Vthrough
p106
sI104
Vtransport
p107
sI105
Vvariation
p108
sI106
VThese
p109
sI107
Vcells
p110
sI108
Vhave
p111
sI109
Vmodel
p112
sI110
V:
sI111
V^
sI112
Vbeen
p113
sI113
Vhas
p114
sI114
Vmay
p115
sI115
Vused
p116
sI116
VHowever
p117
sI117
VOur
p118
sI118
Vconcentration
p119
sI119
Vfunctional
p120
sI120
Vinto
p121
sI121
Vlow
p122
sI122
Vresistance
p123
sI123
Vspecific
p124
sI124
Vtolerance
p125
sI125
Vuptake
p126
sI126
Vuse
p127
sI127
VHere
p128
sI128
Vafter
p129
sI129
Vcompared
p130
sI130
Vwhereas
p131
sI131
V'
sI132
VAs
p132
sI133
Vdata
p133
sI134
Vgrown
p134
sI135
Vhigher
p135
sI136
Vphotosynthesis
p136
sI137
Vshow
p137
sI138
Vsuch
p138
sI139
Vthan
p139
sI140
Vtype
p140
sI141
VCd
p141
sI142
Vbased
p142
sI143
Vcontent
p143
sI144
Vdistribution
p144
sI145
Vinvestigated
p145
sI146
Vlevels
p146
sI147
Vmaize
p147
sI148
Vobserved
p148
sI149
Vphotosynthetic
p149
sI150
Vproduction
p150
sI151
Vsignificant
p151
sI152
Vtemperature
p152
sI153
Vtraits
p153
sI154
Vtree
p154
sI155
V/
sI156
V000
p155
sI157
VNO
p156
sI158
Vaffected
p157
sI159
Vassociated
p158
sI160
Vbiosynthesis
p159
sI161
Vcold
p160
sI162
Vdelta^0
p161
sI163
Vdependent
p162
sI164
Vexchange
p163
sI165
Vhost
p164
sI166
Vimportant
p165
sI167
Vinvolved
p166
sI168
Vpotential
p167
sI169
Vrevealed
p168
sI170
Vstudies
p169
sI171
Vsuggest
p170
sI172
Vtrait
p171
sI173
Vtrees
p172
sI174
Vwell
p173
sI175
Vcontrol
p174
sI176
Vday
p175
sI177
Vdecreased
p176
sI178
Vdrought
p177
sI179
Vfound
p178
sI180
Videntified
p179
sI181
Vmolecular
p180
sI182
Voxygen
p181
sI183
Vtime
p182
sI184
Vwhile
p183
sI185
VSA
p184
sI186
VTo
p185
sI187
Vanalysed
p186
sI188
Vbud
p187
sI189
Vcommunities
p188
sI190
Vefficiency
p189
sI191
Venvironmental
p190
sI192
Vfactors
p191
sI193
Vgas
p192
sI194
Vhad
p193
sI195
Vhow
p194
sI196
Vincrease
p195
sI197
Vlevel
p196
sI198
Vmechanisms
p197
sI199
Vmetabolism
p198
sI200
Vnatural
p199
sI201
Vother
p200
sI202
Vperformance
p201
sI203
Vpit
p202
sI204
Vregulation
p203
sI205
Vseasonal
p204
sI206
Vshoots
p205
sI207
Vthree
p206
sI208
Vwheat
p207
sI209
Vwithin
p208
sI210
VJA
p209
sI211
VUV
p210
sI212
Vall
p211
sI213
Vethylene
p212
sI214
Vforest
p213
sI215
Vfunction
p214
sI216
Vgenotypes
p215
sI217
Vit
p216
sI218
Vknown
p217
sI219
Vlines
p218
sI220
Vmore
p219
sI221
Vmost
p220
sI222
Vone
p221
sI223
Vour
p222
sI224
Vrate
p223
sI225
Vshort
p224
sI226
Vsignalling
p225
sI227
Vsource
p226
sI228
Vstem
p227
sI229
Vtypes
p228
sI230
V+
sI231
VC0
p229
sI232
VIt
p230
sI233
Vactivity
p231
sI234
Vdisease
p232
sI235
Velongation
p233
sI236
Vexperiments
p234
sI237
Vfirst
p235
sI238
Visotope
p236
sI239
Vless
p237
sI240
Vmechanism
p238
sI241
Vnon
p239
sI242
Vonly
p240
sI243
Vover
p241
sI244
Vphloem
p242
sI245
Vrates
p243
sI246
Vseed
p244
sI247
Vsignificantly
p245
sI248
Vstrength
p246
sI249
Vstudied
p247
sI250
Vtomato
p248
sI251
Vtransgenic
p249
sI252
Vwhether
p250
sI253
VDNA
p251
sI254
Vabiotic
p252
sI255
Vacidity
p253
sI256
Vcellular
p254
sI257
Vcycle
p255
sI258
Vdifferences
p256
sI259
Vdiversity
p257
sI260
Vexamined
p258
sI261
Vflowering
p259
sI262
Vflux
p260
sI263
Vfungi
p261
sI264
Vg(m
p262
sI265
Vgrains
p263
sI266
Vlower
p264
sI267
Vprotein
p265
sI268
Vsize
p266
sI269
Vvariations
p267
sI270
Vvegetative
p268
sI271
V0.0
p269
sI272
VCOR
p270
sI273
Vabout
p271
sI274
Varea
p272
sI275
Vbecause
p273
sI276
Vcommunity
p274
sI277
Vcontrast
p275
sI278
Vdark
p276
sI279
Vdeath
p277
sI280
Vdemonstrated
p278
sI281
Veach
p279
sI282
Vessential
p280
sI283
Vexpansion
p281
sI284
Vexposed
p282
sI285
Vexposure
p283
sI286
Vfollowing
p284
sI287
Vfungal
p285
sI288
Vheat
p286
sI289
Vincluding
p287
sI290
Vliquid
p288
sI291
Vmating
p289
sI292
Vmeasured
p290
sI293
Vmelanosporum
p291
sI294
Vmembrane
p292
sI295
Vmicrobial
p293
sI296
Vmutants
p294
sI297
Vphenotype
p295
sI298
Vprofiles
p296
sI299
Vreduced
p297
sI300
Vregulated
p298
sI301
Vset
p299
sI302
Vstarch
p300
sI303
Vstorage
p301
sI304
Vsystem
p302
sI305
Vthaliana
p303
sI306
Vtotal
p304
sI307
Vtranscription
p305
sI308
Vtranscriptional
p306
sI309
Vtranslocation
p307
sI310
Vup
p308
sI311
Vwhen
p309
sI312
V;
sI313
V=
sI314
VB
sI315
VIPMDH0
p310
sI316
VL.
p311
sI317
VMS
p312
sI318
VP
sI319
Vagainst
p313
sI320
Vavailability
p314
sI321
Vbetter
p315
sI322
Vbiomass
p316
sI323
Vcalcium
p317
sI324
Vclimate
p318
sI325
Vcontrolled
p319
sI326
Vdelta(00
p320
sI327
Vdetermined
p321
sI328
Vdid
p322
sI329
Vdynamics
p323
sI330
Vearly
p324
sI331
Velectron
p325
sI332
Venvironments
p326
sI333
Vexhibited
p327
sI334
Vfield
p328
sI335
Vforests
p329
sI336
Vglutathione
p330
sI337
Vgrain
p331
sI338
Vgreen
p332
sI339
Vincreasing
p333
sI340
Vlong
p334
sI341
Vmainly
p335
sI342
Vmass
p336
sI343
Vmeristem
p337
sI344
Vphysiological
p338
sI345
Vplays
p339
sI346
Vpopulations
p340
sI347
Vpreviously
p341
sI348
Vrecovery
p342
sI349
Vsame
p343
sI350
Vscale
p344
sI351
Vsilencing
p345
sI352
Vsingle
p346
sI353
Vstable
p347
sI354
Vstages
p348
sI355
Vstresses
p349
sI356
Vsugar
p350
sI357
Vsuppressed
p351
sI358
Vtemperatures
p352
sI359
Vtested
p353
sI360
Vtissue
p354
sI361
Vtt00
p355
sI362
Vvessel
p356
sI363
V's
p357
sI364
V0000
p358
sI365
V0C(E
p359
sI366
VAM
p360
sI367
VAMF
p361
sI368
VECMs
p362
sI369
VGB
p363
sI370
VPlant
p364
sI371
VSe
p365
sI372
VTuber
p366
sI373
Vabsence
p367
sI374
Vaccumulated
p368
sI375
Vacross
p369
sI376
Vadaptation
p370
sI377
Valtered
p371
sI378
Vand/or
p372
sI379
Vareas
p373
sI380
Vauxin
p374
sI381
Vcavitation
p375
sI382
Vchlorophyll
p376
sI383
Vchlorosis
p377
sI384
Vclosure
p378
sI385
Vcomponents
p379
sI386
Vcytosolic
p380
sI387
Vdemonstrate
p381
sI388
Vdeveloping
p382
sI389
Vdevelopmental
p383
sI390
Vdiameter
p384
sI391
Vdiscrimination
p385
sI392
Vdry
p386
sI393
Vecosystem
p387
sI394
Velements
p388
sI395
Vembolism
p389
sI396
Venvironment
p390
sI397
Vfilter
p391
sI398
Vgenome
p392
sI399
Vgreater
p393
sI400
Vhistory
p394
sI401
Videntify
p395
sI402
Vincreases
p396
sI403
Vindicated
p397
sI404
Vinteraction
p398
sI405
Vlabelling
p399
sI406
Vlife
p400
sI407
Vlittle
p401
sI408
Vlupeol
p402
sI409
Vmaydis
p403
sI410
Vmeasurements
p404
sI411
Vmesophyll
p405
sI412
Vmetabolic
p406
sI413
Vmycorrhizal
p407
sI414
Vnumber
p408
sI415
Vontogeny
p409
sI416
Vpathways
p410
sI417
Vpoint
p411
sI418
Vpositive
p412
sI419
Vprocesses
p413
sI420
Vpromoter
p414
sI421
Vrange
p415
sI422
Vratio
p416
sI423
Vreduction
p417
sI424
Vrelative
p418
sI425
Vrichness
p419
sI426
Vring
p420
sI427
Vsalt
p421
sI428
Vshown
p422
sI429
Vsimilar
p423
sI430
Vsitu
p424
sI431
Vspruce
p425
sI432
Vsuggested
p426
sI433
Vtissues
p427
sI434
Vtranscript
p428
sI435
Vtreatment
p429
sI436
Vtropical
p430
sI437
Vupon
p431
sI438
Vvalues
p432
sI439
Vvarious
p433
sI440
Vvenation
p434
sI441
Vvirus
p435
sI442
Vwhite
p436
sI443
Vwild
p437
sI444
Vyield
p438
sI445
V-00
p439
sI446
V0.000
p440
sI447
VA.
p441
sI448
VBarbarea
p442
sI449
VBy
p443
sI450
VDrought
p444
sI451
VGSL
p445
sI452
VLMA
p446
sI453
VOryza
p447
sI454
VU.
p448
sI455
V^0C
p449
sI456
Vaccessions
p450
sI457
Vadvantages
p451
sI458
Valong
p452
sI459
Valtitude
p453
sI460
Vanaerobic
p454
sI461
Vanthocyanin
p455
sI462
Vbefore
p456
sI463
Vcanopy
p457
sI464
Vcapacity
p458
sI465
Vcarbohydrate
p459
sI466
Vchange
p460
sI467
Vchanging
p461
sI468
Vchromatography
p462
sI469
Vclimatic
p463
sI470
Vconclude
p464
sI471
Vconserved
p465
sI472
Vcould
p466
sI473
Vdegree
p467
sI474
Vdifferentially
p468
sI475
Vdiffering
p469
sI476
Vdirect
p470
sI477
Vdue
p471
sI478
Velevation
p472
sI479
Venzymes
p473
sI480
Vepidermal
p474
sI481
Vevidence
p475
sI482
Vevolution
p476
sI483
Vfactor
p477
sI484
Vfindings
p478
sI485
Vfreezing
p479
sI486
Vfull
p480
sI487
Vgenerated
p481
sI488
Vherbivore
p482
sI489
Vhypothesis
p483
sI490
Vimpact
p484
sI491
Vinhibition
p485
sI492
Vinvestigate
p486
sI493
Vloading
p487
sI494
Vmatter
p488
sI495
Vmetabolites
p489
sI496
Vnative
p490
sI497
Vnew
p491
sI498
Vnight
p492
sI499
Vnitrate
p493
sI500
Vno
p494
sI501
Vnodules
p495
sI502
Vorders
p496
sI503
Voxidative
p497
sI504
Vpatterns
p498
sI505
Vphenology
p499
sI506
Vpresent
p500
sI507
Vproanthocyanidin
p501
sI508
Vprovide
p502
sI509
Vquantitative
p503
sI510
Vrapid
p504
sI511
Vreporter
p505
sI512
Vrequired
p506
sI513
Vrespectively
p507
sI514
Vrespiration
p508
sI515
Vretention
p509
sI516
Vsativa
p510
sI517
Vsecondary
p511
sI518
Vseveral
p512
sI519
Vsignal
p513
sI520
Vsites
p514
sI521
Vsix
p515
sI522
Vstep
p516
sI523
Vstrategies
p517
sI524
Vsucrose
p518
sI525
Vsuggesting
p519
sI526
Vsupply
p520
sI527
Vsuppression
p521
sI528
Vsymbiotic
p522
sI529
Vsynthase
p523
sI530
Vsynthesis
p524
sI531
Vthose
p525
sI532
Vtobacco
p526
sI533
Vtranscriptome
p527
sI534
Vtranspiration
p528
sI535
Vunderstood
p529
sI536
Vunknown
p530
sI537
Vvessels
p531
sI538
Vvia
p532
sI539
Vwall
p533
sI540
Vwithout
p534
sI541
V&
sI542
V0.00
p535
sI543
VAlthough
p536
sI544
VAzospirillum
p537
sI545
VCH0
p538
sI546
VCa(0
p539
sI547
VChlamydomonas
p540
sI548
VDC0000
p541
sI549
VHT
p542
sI550
VHYD0
p543
sI551
VI
sI552
VMAT0
p544
sI553
VMoreover
p545
sI554
VOSC0
p546
sI555
VOsRAN0
p547
sI556
VPCR
p548
sI557
VPicea
p549
sI558
VPlants
p550
sI559
VROS
p551
sI560
VTFs
p552
sI561
VTR
p553
sI562
VTT00
p554
sI563
VVenosa
p555
sI564
VW(g
p556
sI565
VWUE
p557
sI566
Vabscisic
p558
sI567
Vabundance
p559
sI568
Vadaptive
p560
sI569
Vaddition
p561
sI570
Vaerenchyma
p562
sI571
Vaffect
p563
sI572
Vallow
p564
sI573
Vappeared
p565
sI574
Vapplication
p566
sI575
Vassessed
p567
sI576
Vbacterial
p568
sI577
Vbroccoli
p569
sI578
Vcaused
p570
sI579
Vchanged
p571
sI580
Vcharacterized
p572
sI581
Vcomplex
p573
sI582
Vcompounds
p574
sI583
Vcrops
p575
sI584
Vcryptogein
p576
sI585
Vderived
p577
sI586
Vdistinct
p578
sI587
Veither
p579
sI588
Vencoding
p580
sI589
Venriched
p581
sI590
Vescape
p582
sI591
Vevolutionary
p583
sI592
Vexperiment
p584
sI593
Vexpressing
p585
sI594
Vextremophile
p586
sI595
Vfloret
p587
sI596
Vfluorescence
p588
sI597
Vfour
p589
sI598
Vgain
p590
sI599
Vgeneral
p591
sI600
Vgenetic
p592
sI601
Vgenotype
p593
sI602
Vglucosinolates
p594
sI603
Vgrass
p595
sI604
Vground
p596
sI605
Vgrowing
p597
sI606
Vh
sI607
Vhaplotypes
p598
sI608
Vhighly
p599
sI609
Vhomeostasis
p600
sI610
Vhydrological
p601
sI611
Vhypoxia
p602
sI612
Vif
p603
sI613
Vimpacts
p604
sI614
Vimproved
p605
sI615
Vindicate
p606
sI616
Vindicating
p607
sI617
Vinhibitor
p608
sI618
Vintervessel
p609
sI619
Vintra
p610
sI620
Vintracellular
p611
sI621
Vionic
p612
sI622
Viron
p613
sI623
Vlarge
p614
sI624
Vlaser
p615
sI625
Vlikely
p616
sI626
Vlimited
p617
sI627
Vlimiting
p618
sI628
Vmagnitude
p619
sI629
Vmajor
p620
sI630
Vmanner
p621
sI631
Vmannitol
p622
sI632
Vmaximum
p623
sI633
Vmediated
p624
sI634
Vmedium
p625
sI635
Vmembranes
p626
sI636
VmiRNAs
p627
sI637
Vmicroscopy
p628
sI638
Vmorphology
p629
sI639
Vmumol
p630
sI640
Vnegatively
p631
sI641
Vnodule
p632
sI642
Vnovel
p633
sI643
Vnuclear
p634
sI644
Voccurs
p635
sI645
Voff
p636
sI646
Vorder
p637
sI647
Vosmotic
p638
sI648
Vparticularly
p639
sI649
Vper
p640
sI650
Vphosphate
p641
sI651
Vpigmentation
p642
sI652
Vplantation
p643
sI653
Vpre
p644
sI654
Vpreferences
p645
sI655
Vpresence
p646
sI656
Vprobably
p647
sI657
Vproduced
p648
sI658
Vprofiling
p649
sI659
Vproliferation
p650
sI660
Vproposed
p651
sI661
Vproteins
p652
sI662
Vquality
p653
sI663
Vradial
p654
sI664
Vradiation
p655
sI665
Vreactive
p656
sI666
Vreal
p657
sI667
Vreproductive
p658
sI668
Vresulted
p659
sI669
Vrosette
p660
sI670
Vsensitive
p661
sI671
Vshould
p662
sI672
Vsite
p663
sI673
Vsmall
p664
sI674
Vsmaller
p665
sI675
Vsolar
p666
sI676
Vsome
p667
sI677
Vstrongly
p668
sI678
Vsubjected
p669
sI679
Vsuppressor
p670
sI680
Vsurface
p671
sI681
Vtemporal
p672
sI682
Vthere
p673
sI683
Vtogether
p674
sI684
Vtool
p675
sI685
Vtranscripts
p676
sI686
Vtransient
p677
sI687
Vtrigger
p678
sI688
Vvariegated
p679
sI689
Vwarming
p680
sI690
Vwatered
p681
sI691
Vwinter
p682
sI692
Vwound
p683
sI693
V0C
p684
sI694
VABA
p685
sI695
VACC
p686
sI696
VAnalysis
p687
sI697
VAntirrhinum
p688
sI698
VBoth
p689
sI699
VC(a
p690
sI700
VDuring
p691
sI701
VFurthermore
p692
sI702
VH(0)O(0
p693
sI703
VKO
p694
sI704
VLcrTFL0
p695
sI705
VLotus
p696
sI706
VMAT
p697
sI707
VMP00:GFP
p698
sI708
VMediterranean
p699
sI709
VNorway
p700
sI710
VO(0
p701
sI711
VO0
p702
sI712
VPGPR
p703
sI713
VPst
p704
sI714
VRoot
p705
sI715
VThus
p706
sI716
VUnder
p707
sI717
VZea
p708
sI718
V[
sI719
Vadditional
p709
sI720
Vadult
p710
sI721
Vagronomic
p711
sI722
Valbino
p712
sI723
Vallele
p713
sI724
Vammonium
p714
sI725
Vamong
p715
sI726
Vanalyzed
p716
sI727
Vapical
p717
sI728
Vapplied
p718
sI729
Vassimilation
p719
sI730
Vassociation
p720
sI731
Vbasis
p721
sI732
Vbecame
p722
sI733
Vbelowground
p723
sI734
Vbicistronic
p724
sI735
Vcadmium
p725
sI736
Vcaryopsis
p726
sI737
Vcauses
p727
sI738
Vchloroplasts
p728
sI739
Vco
p729
sI740
Vcoarse
p730
sI741
Vcombined
p731
sI742
Vcompetition
p732
sI743
Vcomposition
p733
sI744
Vconducted
p734
sI745
Vconstruct
p735
sI746
Vcontact
p736
sI747
Vcontrasting
p737
sI748
Vcontribute
p738
sI749
Vcontrols
p739
sI750
Vcorresponding
p740
sI751
Vcoupled
p741
sI752
Vcoupling
p742
sI753
Vcrop
p743
sI754
Vcultures
p744
sI755
Vd
sI756
Vdamasonium
p745
sI757
Vdefence
p746
sI758
Vdefences
p747
sI759
Vdensity
p748
sI760
Vdepleted
p749
sI761
Vdesign
p750
sI762
Vdetermine
p751
sI763
Vdiffered
p752
sI764
Vdistributions
p753
sI765
Vdomain
p754
sI766
Vdramatically
p755
sI767
Venhanced
p756
sI768
Venzyme
p757
sI769
Vepidermis
p758
sI770
Vespecially
p759
sI771
Vevaluate
p760
sI772
Vevolved
p761
sI773
Vexamine
p762
sI774
Vexplained
p763
sI775
Vexpressed
p764
sI776
Vextent
p765
sI777
Vf
sI778
Vfatty
p766
sI779
Vflow
p767
sI780
Vfluorescent
p768
sI781
Vfood
p769
sI782
Vfree
p770
sI783
Vfruit
p771
sI784
Vfungus
p772
sI785
Vg(s
p773
sI786
Vgermination
p774
sI787
Vgradient
p775
sI788
Vgradients
p776
sI789
Vguard
p777
sI790
Vhair
p778
sI791
Vhumidity
p779
sI792
Vhybridization
p780
sI793
Videntical
p781
sI794
Vindirect
p782
sI795
Vinduce
p783
sI796
Vinfection
p784
sI797
Vinformation
p785
sI798
Vinhibited
p786
sI799
Vinitiation
p787
sI800
Vinoculated
p788
sI801
Vinorganic
p789
sI802
Vinvasion
p790
sI803
Vion
p791
sI804
Vipmdh0
p792
sI805
Visolates
p793
sI806
Visotopic
p794
sI807
Vjaponicus
p795
sI808
Vjasmonic
p796
sI809
Vjuveniles
p797
sI810
Vkey
p798
sI811
Vlaboratory
p799
sI812
Vlargely
p800
sI813
Vlegume
p801
sI814
Vlettuce
p802
sI815
Vleucine
p803
sI816
Vlimit
p804
sI817
Vline
p805
sI818
Vmacropores
p806
sI819
Vmale
p807
sI820
Vmaster
p808
sI821
Vmays
p809
sI822
Vmeiosis
p810
sI823
Vmetabolite
p811
sI824
Vmitochondrial
p812
sI825
Vmodels
p813
sI826
Vmodified
p814
sI827
Vmortality
p815
sI828
Vmuch
p816
sI829
Vnapus
p817
sI830
Vnegative
p818
sI831
Vnitric
p819
sI832
Vnonsynonymous
p820
sI833
Vnucleotide
p821
sI834
Vobservations
p822
sI835
Voften
p823
sI836
Voverexpression
p824
sI837
Voxide
p825
sI838
Vpartly
p826
sI839
Vpathway
p827
sI840
Vpatterning
p828
sI841
Vpetiolata
p829
sI842
Vphenotypic
p830
sI843
Vphotoperiod
p831
sI844
Vphysiology
p832
sI845
Vplasma
p833
sI846
Vplay
p834
sI847
Vpoorly
p835
sI848
Vpoplar
p836
sI849
Vpost
p837
sI850
Vpredict
p838
sI851
Vpredicted
p839
sI852
Vprevious
p840
sI853
Vprimarily
p841
sI854
Vprimary
p842
sI855
Vprocess
p843
sI856
Vpromoting
p844
sI857
Vproperties
p845
sI858
Vpropose
p846
sI859
Vproviding
p847
sI860
Vratios
p848
sI861
Vrecent
p849
sI862
Vred
p850
sI863
Vreduce
p851
sI864
Vregions
p852
sI865
Vregulate
p853
sI866
Vregulatory
p854
sI867
Vrelationships
p855
sI868
Vremains
p856
sI869
Vrepressed
p857
sI870
Vresearch
p858
sI871
Vresponsive
p859
sI872
Vresult
p860
sI873
Vreverse
p861
sI874
Vroles
p862
sI875
Vsectoriality
p863
sI876
Vsegregation
p864
sI877
Vselected
p865
sI878
Vsensitivity
p866
sI879
Vsequence
p867
sI880
Vsequenced
p868
sI881
Vsignals
p869
sI882
Vso
p870
sI883
Vsoils
p871
sI884
Vsoluble
p872
sI885
Vsolutes
p873
sI886
Vspatial
p874
sI887
Vspecificity
p875
sI888
Vspectrometry
p876
sI889
Vspectroscopy
p877
sI890
Vspectrum
p878
sI891
Vspiking
p879
sI892
Vspore
p880
sI893
Vspp.
p881
sI894
Vstage
p882
sI895
Vstrains
p883
sI896
Vstrong
p884
sI897
Vsubmergence
p885
sI898
Vsugars
p886
sI899
Vsuggests
p887
sI900
Vtest
p888
sI901
Vthen
p889
sI902
Vtiming
p890
sI903
Vtowards
p891
sI904
Vtrade
p892
sI905
Vtransduction
p893
sI906
Vtreatments
p894
sI907
Vtrichome
p895
sI908
Vtruffle
p896
sI909
Vtrunks
p897
sI910
Vunderstanding
p898
sI911
Vurate
p899
sI912
Vvaried
p900
sI913
Vvector
p901
sI914
Vvulnerability
p902
sI915
Vwhole
p903
sI916
Vwounding
p904
sI917
Vyoung
p905
sI918
Vzinc
p906
sI919
V-dependent
p907
sI920
V?
sI921
VADH0
p908
sI922
VAerenchyma
p909
sI923
VAtXRN0
p910
sI924
VBased
p911
sI925
VBnHO-0
p912
sI926
VBrassica
p913
sI927
VBrassicaceae
p914
sI928
VBud
p915
sI929
VC.
p916
sI930
VCa^0
p917
sI931
VComparing
p918
sI932
VCompetition
p919
sI933
VDBM
p920
sI934
VDifferent
p921
sI935
VFor
p922
sI936
VH0O0
p923
sI937
VHOs
p924
sI938
VHSFA0
p925
sI939
VHSR
p926
sI940
VHg
p927
sI941
VICP
p928
sI942
VLong
p929
sI943
VMany
p930
sI944
VMore
p931
sI945
VNADH
p932
sI946
VNMR
p933
sI947
VNicotiana
p934
sI948
VO(0)*(-
p935
sI949
VOsHMA0
p936
sI950
VOsHMA0mc
p937
sI951
VRtS
p938
sI952
VRuBP
p939
sI953
VRubisco
p940
sI954
VS.
p941
sI955
VSGT0
p942
sI956
VSH
p943
sI957
VSHAM
p944
sI958
VSsIIa
p945
sI959
VT(F
p946
sI960
VT.
p947
sI961
VTFL0
p948
sI962
VTaken
p949
sI963
VUnderstanding
p950
sI964
VVIGS
p951
sI965
VVenation
p952
sI966
VW(t
p953
sI967
VWD
p954
sI968
VWater
p955
sI969
VWhen
p956
sI970
Vabies
p957
sI971
Vabnormally
p958
sI972
Vabove
p959
sI973
Vabsent
p960
sI974
Vaccess
p961
sI975
Vacquisition
p962
sI976
Vact
p963
sI977
Vadapted
p964
sI978
Vadults
p965
sI979
Vadvantage
p966
sI980
Vaffecting
p967
sI981
Vallows
p968
sI982
Valthough
p969
sI983
Vamino
p970
sI984
Vanalyses
p971
sI985
Vanatomical
p972
sI986
Vangiosperm
p973
sI987
Vannua
p974
sI988
Vanoxia
p975
sI989
Vapoplastic
p976
sI990
Vappears
p977
sI991
Vapproaches
p978
sI992
Varbuscular
p979
sI993
Varchitecture
p980
sI994
Vascomycete
p981
sI995
Vbarley
p982
sI996
Vbeing
p983
sI997
Vbiloba
p984
sI998
Vbinding
p985
sI999
Vbiological
p986
sI1000
Vbodies
p987
sI1001
Vbranches
p988
sI1002
Vbreeding
p989
sI1003
Vburst
p990
sI1004
Vcalculated
p991
sI1005
Vcapitulum
p992
sI1006
Vcat0
p993
sI1007
Vcause
p994
sI1008
Vchain
p995
sI1009
Vchannel
p996
sI1010
Vcharacterization
p997
sI1011
Vchilling
p998
sI1012
Vchloroplast
p999
sI1013
Vclimates
p1000
sI1014
Vclinal
p1001
sI1015
Vcloning
p1002
sI1016
Vcoat
p1003
sI1017
Vcoding
p1004
sI1018
Vcombination
p1005
sI1019
Vcommon
p1006
sI1020
Vcomparing
p1007
sI1021
Vcomparison
p1008
sI1022
Vcompound
p1009
sI1023
Vcompromised
p1010
sI1024
Vconfers
p1011
sI1025
Vconfirmed
p1012
sI1026
Vconservation
p1013
sI1027
Vconsistent
p1014
sI1028
Vcontaining
p1015
sI1029
Vcontents
p1016
sI1030
Vcorrelation
p1017
sI1031
Vcorrelations
p1018
sI1032
Vcritical
p1019
sI1033
Vcultivars
p1020
sI1034
Vcytoplasm
p1021
sI1035
Vcytoskeleton
p1022
sI1036
Vcytosol
p1023
sI1037
Vdamage
p1024
sI1038
Vdays
p1025
sI1039
Vdecrease
p1026
sI1040
Vdefective
p1027
sI1041
Vdeficits
p1028
sI1042
Vdemand
p1029
sI1043
Vdepended
p1030
sI1044
Vdepends
p1031
sI1045
Vdepletion
p1032
sI1046
Vdescribed
p1033
sI1047
Vdetected
p1034
sI1048
Vdetermining
p1035
sI1049
Vdeveloped
p1036
sI1050
Vdifferential
p1037
sI1051
Vdiffusion
p1038
sI1052
Vdirectly
p1039
sI1053
Vdiurnal
p1040
sI1054
Vdivergence
p1041
sI1055
Vdivision
p1042
sI1056
Vdominance
p1043
sI1057
Vdrying
p1044
sI1058
Vdynamic
p1045
sI1059
Vecological
p1046
sI1060
Vecosystems
p1047
sI1061
Vectomycorrhizal
p1048
sI1062
Vefflux
p1049
sI1063
Veight
p1050
sI1064
Velicited
p1051
sI1065
Vencodes
p1052
sI1066
Venhances
p1053
sI1067
Vestablished
p1054
sI1068
Vestimate
p1055
sI1069
Veven
p1056
sI1070
Vevents
p1057
sI1071
Vexogenous
p1058
sI1072
Vexotic
p1059
sI1073
Vexperimental
p1060
sI1074
Vexplanation
p1061
sI1075
Vexport
p1062
sI1076
Vexposures
p1063
sI1077
Vface
p1064
sI1078
Vfamilies
p1065
sI1079
Vfamily
p1066
sI1080
Vfeeding
p1067
sI1081
Vfiltered
p1068
sI1082
Vfixation
p1069
sI1083
Vfixed
p1070
sI1084
Vfoliar
p1071
sI1085
Vforage
p1072
sI1086
Vforms
p1073
sI1087
Vfragment
p1074
sI1088
Vfusion
p1075
sI1089
Vgenetically
p1076
sI1090
Vgenus
p1077
sI1091
Vglobal
p1078
sI1092
Vgrasses
p1079
sI1093
Vgreenhouse
p1080
sI1094
Vhairs
p1081
sI1095
Vherbaceous
p1082
sI1096
Vherbivores
p1083
sI1097
Vhom(oe)ologous
p1084
sI1098
Vhormone
p1085
sI1099
Vhydrogen
p1086
sI1100
Vimaging
p1087
sI1101
Vimportance
p1088
sI1102
Vindependently
p1089
sI1103
Vinfected
p1090
sI1104
Vinjury
p1091
sI1105
Vinternodes
p1092
sI1106
Vintrinsic
p1093
sI1107
Visolated
p1094
sI1108
Vk
sI1109
Vlack
p1095
sI1110
Vlatewood
p1096
sI1111
Vlatter
p1097
sI1112
Vled
p1098
sI1113
Vlegumes
p1099
sI1114
Vlength
p1100
sI1115
Vlesion
p1101
sI1116
Vlike
p1102
sI1117
Vlimitation
p1103
sI1118
Vlinear
p1104
sI1119
Vloss
p1105
sI1120
Vmaintenance
p1106
sI1121
Vmanagement
p1107
sI1122
Vmature
p1108
sI1123
Vmean
p1109
sI1124
Vmetal
p1110
sI1125
Vminor
p1111
sI1126
Vmitosis
p1112
sI1127
Vmodulated
p1113
sI1128
Vmodules
p1114
sI1129
Vmol-^0
p1115
sI1130
Vmonitored
p1116
sI1131
Vmonths
p1117
sI1132
Vmovement
p1118
sI1133
Vmutations
p1119
sI1134
Vneedles
p1120
sI1135
Vneighbours
p1121
sI1136
Vniche
p1122
sI1137
Vnormal
p1123
sI1138
Vnursery
p1124
sI1139
Vnutrient
p1125
sI1140
Vold
p1126
sI1141
Vorgan
p1127
sI1142
Vorganic
p1128
sI1143
Vorganization
p1129
sI1144
Vorigin
p1130
sI1145
Vorigins
p1131
sI1146
Voscillations
p1132
sI1147
VpH
p1133
sI1148
Vparameters
p1134
sI1149
Vparasitoids
p1135
sI1150
Vpart
p1136
sI1151
Vperformed
p1137
sI1152
Vphase
p1138
sI1153
Vphenylpropanoid
p1139
sI1154
Vphotorespiratory
p1140
sI1155
Vplantations
p1141
sI1156
Vplots
p1142
sI1157
Vpollen
p1143
sI1158
Vpossible
p1144
sI1159
Vpotentials
p1145
sI1160
Vprecursor
p1146
sI1161
Vpreference
p1147
sI1162
Vproduces
p1148
sI1163
Vpropagation
p1149
sI1164
Vproportion
p1150
sI1165
Vprotoplasts
p1151
sI1166
Vprovides
p1152
sI1167
VqRT
p1153
sI1168
Vquantified
p1154
sI1169
Vrank
p1155
sI1170
Vrecently
p1156
sI1171
Vreductase
p1157
sI1172
Vregimes
p1158
sI1173
Vregulators
p1159
sI1174
Vrelation
p1160
sI1175
Vrelationship
p1161
sI1176
Vremained
p1162
sI1177
Vreport
p1163
sI1178
Vrequires
p1164
sI1179
Vresistant
p1165
sI1180
Vrespiratory
p1166
sI1181
Vsaponins
p1167
sI1182
Vsaturation
p1168
sI1183
Vseedlings
p1169
sI1184
Vsequences
p1170
sI1185
Vsequestration
p1171
sI1186
Vshade
p1172
sI1187
Vshock
p1173
sI1188
Vshows
p1174
sI1189
Vsignaling
p1175
sI1190
Vslightly
p1176
sI1191
Vstarvation
p1177
sI1192
Vstate
p1178
sI1193
Vstrain
p1179
sI1194
Vstructural
p1180
sI1195
Vstructure
p1181
sI1196
Vsuccessful
p1182
sI1197
Vsupplied
p1183
sI1198
Vsupport
p1184
sI1199
Vswelling
p1185
sI1200
Vsymptoms
p1186
sI1201
Vsynthetase
p1187
sI1202
Vterm
p1188
sI1203
Vterminal
p1189
sI1204
Vtherefore
p1190
sI1205
Vthey
p1191
sI1206
Vthinner
p1192
sI1207
Vtip
p1193
sI1208
Vtransiently
p1194
sI1209
Vtransition
p1195
sI1210
Vtransported
p1196
sI1211
Vtransporter
p1197
sI1212
Vtridentata
p1198
sI1213
Vtriple
p1199
sI1214
Vtruffles
p1200
sI1215
Vtruncatula
p1201
sI1216
Vunderstand
p1202
sI1217
Vvacuolar
p1203
sI1218
Vvariability
p1204
sI1219
Vvariable
p1205
sI1220
Vvary
p1206
sI1221
Vvivo
p1207
sI1222
Vwalls
p1208
sI1223
Vwatering
p1209
sI1224
Vwet
p1210
sI1225
Vwhat
p1211
sI1226
Vwhere
p1212
sI1227
Vwhose
p1213
sI1228
Vwidely
p1214
sI1229
Vwidespread
p1215
sI1230
Vwill
p1216
sI1231
Vxrn0
p1217
sI1232
Vyet
p1218
sI1233
V*
sI1234
V-0
p1219
sI1235
V-0.0
p1220
sI1236
V-00.0
p1221
sI1237
V/-
p1222
sI1238
V0-IPM
p1223
sI1239
V00.00
p1224
sI1240
V00S::prosys
p1225
sI1241
V00yr
p1226
sI1242
V0C(p
p1227
sI1243
V0N
p1228
sI1244
V0O
p1229
sI1245
V>
sI1246
VA(000
p1230
sI1247
VA(N)/g(s
p1231
sI1248
VA(n
p1232
sI1249
VA0
p1233
sI1250
VATP
p1234
sI1251
VATPase
p1235
sI1252
VAfter
p1236
sI1253
VAlliaria
p1237
sI1254
VAlnus
p1238
sI1255
VAmong
p1239
sI1256
VApical
p1240
sI1257
VArtemisia
p1241
sI1258
VAtSGT0b
p1242
sI1259
VAtrop00(CA
p1243
sI1260
VAtrop00(CA)-induced
p1244
sI1261
VB.
p1245
sI1262
VBMV
p1246
sI1263
VBS000
p1247
sI1264
VBeech
p1248
sI1265
VC(0
p1249
sI1266
VCA
p1250
sI1267
VCAT
p1251
sI1268
VCV
p1252
sI1269
VCa^0+](cyt
p1253
sI1270
VCephalanthera
p1254
sI1271
VCitrus
p1255
sI1272
VCol-0
p1256
sI1273
VDMA
p1257
sI1274
VDelta(i
p1258
sI1275
VDelta(obs
p1259
sI1276
VDelta(p
p1260
sI1277
VDelta^0
p1261
sI1278
VDespite
p1262
sI1279
VDiabrotica
p1263
sI1280
VEBR
p1264
sI1281
VENOD00
p1265
sI1282
VET
p1266
sI1283
VETC
p1267
sI1284
VEarly
p1268
sI1285
VEffect
p1269
sI1286
VEffects
p1270
sI1287
VEuropean
p1271
sI1288
VExperiments
p1272
sI1289
VExpression
p1273
sI1290
VF(C
p1274
sI1291
VFFD
p1275
sI1292
VFLOWER
p1276
sI1293
VFR
p1277
sI1294
VFagus
p1278
sI1295
VFollowing
p1279
sI1296
VFunctional
p1280
sI1297
VGC
p1281
sI1298
VGS
p1282
sI1299
VGSSG
p1283
sI1300
VGapC0
p1284
sI1301
VGene
p1285
sI1302
VGinkgo
p1286
sI1303
VGlucosinolates
p1287
sI1304
VGrowth
p1288
sI1305
VH(0
p1289
sI1306
VHPLC
p1290
sI1307
VHSFA0s
p1291
sI1308
VHYDEF
p1292
sI1309
VHYDG
p1293
sI1310
VHelix
p1294
sI1311
VHuber
p1295
sI1312
VIIa
p1296
sI1313
VJIM0
p1297
sI1314
VK(leaf
p1298
sI1315
VK+(in
p1299
sI1316
VL(-0
p1300
sI1317
VLC
p1301
sI1318
VLarrea
p1302
sI1319
VLeaf
p1303
sI1320
VLeavenworthia
p1304
sI1321
VLight
p1305
sI1322
VLinking
p1306
sI1323
VLow
p1307
sI1324
VM.
p1308
sI1325
VMCB
p1309
sI1326
VMannitol
p1310
sI1327
VMost
p1311
sI1328
VN%
p1312
sI1329
VNADP
p1313
sI1330
VNADPH
p1314
sI1331
VNaCl
p1315
sI1332
VNitrogen
p1316
sI1333
VNothofagus
p1317
sI1334
VOsEDR0
p1318
sI1335
VOsEDR0-KO
p1319
sI1336
VOsSPR0
p1320
sI1337
VOsspr0
p1321
sI1338
VPhysiological
p1322
sI1339
VPi
p1323
sI1340
VPotato
p1324
sI1341
VPre
p1325
sI1342
VQK
p1326
sI1343
VQTL
p1327
sI1344
VQuantitative
p1328
sI1345
VR
sI1346
VROP
p1329
sI1347
VRecent
p1330
sI1348
VRole
p1331
sI1349
VS
sI1350
VSD
p1332
sI1351
VSNPs
p1333
sI1352
VSOD
p1334
sI1353
VSSR
p1335
sI1354
VSXRF
p1336
sI1355
VSYM
p1337
sI1356
VSoil
p1338
sI1357
VSpruce
p1339
sI1358
VStable
p1340
sI1359
VStarch
p1341
sI1360
VSubsequent
p1342
sI1361
VT
sI1362
VTCA
p1343
sI1363
VTGMS
p1344
sI1364
VTherefore
p1345
sI1365
VThlaspi
p1346
sI1366
VTranscriptional
p1347
sI1367
VTreatment
p1348
sI1368
VTriticum
p1349
sI1369
VTwo
p1350
sI1370
VUnlike
p1351
sI1371
VVariation
p1352
sI1372
VWS
p1353
sI1373
VWT
p1354
sI1374
VWW
p1355
sI1375
VX
sI1376
VZinc
p1356
sI1377
V]
sI1378
V^0
p1357
sI1379
Vability
p1358
sI1380
Vablation
p1359
sI1381
Vabnormal
p1360
sI1382
Vaboveground
p1361
sI1383
Vacclimation
p1362
sI1384
Vaccumulates
p1363
sI1385
Vaccumulating
p1364
sI1386
Vaccurately
p1365
sI1387
Vacquired
p1366
sI1388
Vactivated
p1367
sI1389
Vactivation
p1368
sI1390
Vactivities
p1369
sI1391
Vadaptations
p1370
sI1392
Vadverse
p1371
sI1393
Vair
p1372
sI1394
Valga
p1373
sI1395
Valien
p1374
sI1396
Valiphatic
p1375
sI1397
Vallocation
p1376
sI1398
Vallowed
p1377
sI1399
Valpha
p1378
sI1400
Valready
p1379
sI1401
Valterations
p1380
sI1402
Vamount
p1381
sI1403
Vanalytical
p1382
sI1404
Vancestral
p1383
sI1405
Vanion
p1384
sI1406
Vanther
p1385
sI1407
Vanthers
p1386
sI1408
Vanthocyanins
p1387
sI1409
Vantimalarial
p1388
sI1410
Vantioxidant
p1389
sI1411
Vapparent
p1390
sI1412
Vapplications
p1391
sI1413
Vapproach
p1392
sI1414
Varsenic
p1393
sI1415
Vartemisinin
p1394
sI1416
Vasci
p1395
sI1417
Vassay
p1396
sI1418
Vassumes
p1397
sI1419
Vattention
p1398
sI1420
Vattraction
p1399
sI1421
Vattributed
p1400
sI1422
Vaverage
p1401
sI1423
Vb
sI1424
VbHLH
p1402
sI1425
Vbalance
p1403
sI1426
Vbarriers
p1404
sI1427
Vbenefit
p1405
sI1428
Vbenthamiana
p1406
sI1429
Vbiochemical
p1407
sI1430
Vbiosynthetic
p1408
sI1431
Vbp
p1409
sI1432
Vbranch
p1410
sI1433
Vbread
p1411
sI1434
Vbuds
p1412
sI1435
VcDNA
p1413
sI1436
Vcaerulescens
p1414
sI1437
Vcame
p1415
sI1438
Vcameleon
p1416
sI1439
Vcarboxylation
p1417
sI1440
Vcases
p1418
sI1441
Vcatabolism
p1419
sI1442
Vcereal
p1420
sI1443
Vcertain
p1421
sI1444
Vchamaephyte
p1422
sI1445
Vcharacters
p1423
sI1446
Vchemical
p1424
sI1447
Vclass
p1425
sI1448
Vcodes
p1426
sI1449
Vcoefficient
p1427
sI1450
Vcolinearity
p1428
sI1451
Vcombinations
p1429
sI1452
Vcommunication
p1430
sI1453
Vcompatible
p1431
sI1454
Vcompeting
p1432
sI1455
Vcomplement
p1433
sI1456
Vcomplete
p1434
sI1457
Vconclusion
p1435
sI1458
Vconcurrent
p1436
sI1459
Vcondition
p1437
sI1460
Vconductivity
p1438
sI1461
Vconfer
p1439
sI1462
Vconfirm
p1440
sI1463
Vconnectivity
p1441
sI1464
Vconsiderable
p1442
sI1465
Vconstitute
p1443
sI1466
Vconstitutive
p1444
sI1467
Vconstrained
p1445
sI1468
Vcontained
p1446
sI1469
Vcontains
p1447
sI1470
Vcontinued
p1448
sI1471
Vcontribution
p1449
sI1472
Vcontrolling
p1450
sI1473
Vcorrelated
p1451
sI1474
Vcorrelates
p1452
sI1475
Vcotyledons
p1453
sI1476
Vcovariation
p1454
sI1477
Vcrassa
p1455
sI1478
Vcreating
p1456
sI1479
Vcrucial
p1457
sI1480
Vcucumber
p1458
sI1481
Vcultivar
p1459
sI1482
Vcultivation
p1460
sI1483
Vculture
p1461
sI1484
Vcurrent
p1462
sI1485
Vcyt
p1463
sI1486
Vcytochrome
p1464
sI1487
Vcytokinesis
p1465
sI1488
Vdarkness
p1466
sI1489
Vdate
p1467
sI1490
Vdeciduous
p1468
sI1491
Vdeclined
p1469
sI1492
Vdecreasing
p1470
sI1493
Vdeficit
p1471
sI1494
Vdehydrogenase
p1472
sI1495
Vdehydrogenases
p1473
sI1496
Vdensities
p1474
sI1497
Vdesert
p1475
sI1498
Vdesigned
p1476
sI1499
Vdespite
p1477
sI1500
Vdeterioration
p1478
sI1501
Vdeterminant
p1479
sI1502
Vdeterrent
p1480
sI1503
Vdevelop
p1481
sI1504
Vdifference
p1482
sI1505
Vdifferentiation
p1483
sI1506
Vdiminished
p1484
sI1507
Vdiode
p1485
sI1508
Vdiscovery
p1486
sI1509
Vdiscuss
p1487
sI1510
Vdiscussed
p1488
sI1511
Vdissect
p1489
sI1512
Vdistant
p1490
sI1513
Vdistinguished
p1491
sI1514
Vdocumenting
p1492
sI1515
Vdoes
p1493
sI1516
Vdose
p1494
sI1517
Vdouble
p1495
sI1518
Vdownstream
p1496
sI1519
Vdrier
p1497
sI1520
Vdriven
p1498
sI1521
Vdurum
p1499
sI1522
Vear
p1500
sI1523
Vearlier
p1501
sI1524
Vectomycorrhiza
p1502
sI1525
Vedible
p1503
sI1526
Veffectiveness
p1504
sI1527
Velectrophysiological
p1505
sI1528
Velevations
p1506
sI1529
Vembolized
p1507
sI1530
Vemerging
p1508
sI1531
Vemployed
p1509
sI1532
Venable
p1510
sI1533
Venabled
p1511
sI1534
Vencode
p1512
sI1535
Vend
p1513
sI1536
Vendogenous
p1514
sI1537
Venergy
p1515
sI1538
Vestablishment
p1516
sI1539
Vestimated
p1517
sI1540
Vevaluated
p1518
sI1541
Vevergreen
p1519
sI1542
Vevolve
p1520
sI1543
Vexcess
p1521
sI1544
Vexerting
p1522
sI1545
Vexhibit
p1523
sI1546
Vexist
p1524
sI1547
Vextracellular
p1525
sI1548
Vextracts
p1526
sI1549
Vextreme
p1527
sI1550
Vexudate
p1528
sI1551
Vfacilitate
p1529
sI1552
Vfertilization
p1530
sI1553
Vfifth
p1531
sI1554
Vfilling
p1532
sI1555
Vfinding
p1533
sI1556
Vfine
p1534
sI1557
Vflood
p1535
sI1558
Vfloral
p1536
sI1559
Vflower
p1537
sI1560
Vflowers
p1538
sI1561
Vfluctuations
p1539
sI1562
Vfocused
p1540
sI1563
Vformed
p1541
sI1564
Vfraction
p1542
sI1565
Vfractionation
p1543
sI1566
Vfruticosa
p1544
sI1567
Vfully
p1545
sI1568
Vfunctionally
p1546
sI1569
Vfundamental
p1547
sI1570
Vfurther
p1548
sI1571
Vfynbos
p1549
sI1572
Vgametophytes
p1550
sI1573
Vgeneration
p1551
sI1574
Vgerminated
p1552
sI1575
Vgibberellin
p1553
sI1576
Vglauca
p1554
sI1577
Vgleba
p1555
sI1578
Vglucosinolate
p1556
sI1579
Vglutamine
p1557
sI1580
Vglycophytic
p1558
sI1581
Vgroup
p1559
sI1582
Vhabitats
p1560
sI1583
Vheating
p1561
sI1584
Vheavy
p1562
sI1585
Vhelp
p1563
sI1586
Vheme
p1564
sI1587
Vherbivory
p1565
sI1588
Vheterophylly
p1566
sI1589
Vheterothallic
p1567
sI1590
Vhighest
p1568
sI1591
Vhighlights
p1569
sI1592
Vhistological
p1570
sI1593
Vhome
p1571
sI1594
Vhosts
p1572
sI1595
Vhot
p1573
sI1596
Vhowever
p1574
sI1597
Vhuman
p1575
sI1598
Vhyphopodia
p1576
sI1599
Vhypothesized
p1577
sI1600
Vi.e.
p1578
sI1601
Videntification
p1579
sI1602
Vimplications
p1580
sI1603
Vimprovements
p1581
sI1604
Vimproving
p1582
sI1605
Vincluded
p1583
sI1606
Vindex
p1584
sI1607
Vindividuals
p1585
sI1608
Vinduction
p1586
sI1609
Vinfluenced
p1587
sI1610
Vinfluences
p1588
sI1611
Vinhibitors
p1589
sI1612
Vinitially
p1590
sI1613
Vinoculation
p1591
sI1614
Vinsight
p1592
sI1615
Vinstability
p1593
sI1616
Vintact
p1594
sI1617
Vinter
p1595
sI1618
Vinteractions
p1596
sI1619
Vintercellular
p1597
sI1620
Vinterest
p1598
sI1621
Vinternode
p1599
sI1622
Vinterspecific
p1600
sI1623
Vintranuclear
p1601
sI1624
Vinvasions
p1602
sI1625
Vinvasive
p1603
sI1626
Vinvolvement
p1604
sI1627
Vinward
p1605
sI1628
Visotopes
p1606
sI1629
Vjasmonate
p1607
sI1630
Vk0
p1608
sI1631
Vkinetics
p1609
sI1632
Vknockout
p1610
sI1633
Vlamps
p1611
sI1634
Vlarger
p1612
sI1635
Vlateral
p1613
sI1636
Vleads
p1614
sI1637
Vleafminers
p1615
sI1638
Vleafy
p1616
sI1639
Vlesions
p1617
sI1640
Vlifecycle
p1618
sI1641
Vlink
p1619
sI1642
Vlinked
p1620
sI1643
Vlocalization
p1621
sI1644
Vlocated
p1622
sI1645
Vlonger
p1623
sI1646
Vlost
p1624
sI1647
Vlowland
p1625
sI1648
Vlt
p1626
sI1649
Vlumen
p1627
sI1650
Vlysine
p1628
sI1651
Vm-^0
p1629
sI1652
Vmagnetic
p1630
sI1653
Vmaintaining
p1631
sI1654
Vmany
p1632
sI1655
Vmarked
p1633
sI1656
Vmarker
p1634
sI1657
Vmarkers
p1635
sI1658
Vme
p1636
sI1659
Vmeadow
p1637
sI1660
Vmeans
p1638
sI1661
Vmechanically
p1639
sI1662
Vmechanistic
p1640
sI1663
Vmediating
p1641
sI1664
Vmelanodiscus
p1642
sI1665
Vmethod
p1643
sI1666
Vmethylcitrate
p1644
sI1667
Vmight
p1645
sI1668
Vmin
p1646
sI1669
Vminimum
p1647
sI1670
Vmitochondria
p1648
sI1671
Vmixed
p1649
sI1672
Vmixtures
p1650
sI1673
Vmobility
p1651
sI1674
Vmodes
p1652
sI1675
Vmodifications
p1653
sI1676
Vmodulating
p1654
sI1677
Vmoisture
p1655
sI1678
Vmol
p1656
sI1679
Vmolecule
p1657
sI1680
Vmonitor
p1658
sI1681
Vmorphological
p1659
sI1682
Vmosaic
p1660
sI1683
VmuL
p1661
sI1684
Vmutation
p1662
sI1685
Vmycoheterotrophic
p1663
sI1686
Vnature
p1664
sI1687
Vnear
p1665
sI1688
Vnecrotic
p1666
sI1689
Vneed
p1667
sI1690
Vneighboring
p1668
sI1691
Vnet
p1669
sI1692
Vnetwork
p1670
sI1693
Vnext
p1671
sI1694
Vnia0nia0
p1672
sI1695
Vnitroblue
p1673
sI1696
Vnodes
p1674
sI1697
Vnor
p1675
sI1698
Vnuclei
p1676
sI1699
Vnutrition
p1677
sI1700
Vobserve
p1678
sI1701
Voccurred
p1679
sI1702
Voccurrence
p1680
sI1703
Voldest
p1681
sI1704
Vopen
p1682
sI1705
Vopposite
p1683
sI1706
Voptimal
p1684
sI1707
Vorganelles
p1685
sI1708
Vorgans
p1686
sI1709
Voriginating
p1687
sI1710
Vost0
p1688
sI1711
Voverlap
p1689
sI1712
Voxidase
p1690
sI1713
Voxygenase
p1691
sI1714
VpHs
p1692
sI1715
Vpairs
p1693
sI1716
Vpanicles
p1694
sI1717
Vparallel
p1695
sI1718
Vparalleled
p1696
sI1719
Vparenchyma
p1697
sI1720
Vparental
p1698
sI1721
Vpartitioning
p1699
sI1722
Vpast
p1700
sI1723
Vpedigrees
p1701
sI1724
Vperceived
p1702
sI1725
Vperception
p1703
sI1726
Vperennial
p1704
sI1727
Vpermeation
p1705
sI1728
Vperoxide
p1706
sI1729
Vpetiole
p1707
sI1730
Vphenolic
p1708
sI1731
Vphenological
p1709
sI1732
Vphosphorus
p1710
sI1733
Vphosphorylated
p1711
sI1734
Vphoto
p1712
sI1735
Vphotochemical
p1713
sI1736
Vphotosynthates
p1714
sI1737
Vphysical
p1715
sI1738
Vphytohormone
p1716
sI1739
Vpivotal
p1717
sI1740
Vplant(-0
p1718
sI1741
Vplastic
p1719
sI1742
Vpollinator
p1720
sI1743
Vpolymerase
p1721
sI1744
Vpolyploid
p1722
sI1745
Vpopulation
p1723
sI1746
Vporosity
p1724
sI1747
Vportion
p1725
sI1748
Vpostembryonic
p1726
sI1749
Vpotassium
p1727
sI1750
Vpotentially
p1728
sI1751
Vppm
p1729
sI1752
Vprecipitation
p1730
sI1753
Vprecise
p1731
sI1754
Vpreferred
p1732
sI1755
Vprevent
p1733
sI1756
Vpri
p1734
sI1757
Vprimordia
p1735
sI1758
Vprinciple
p1736
sI1759
Vproduce
p1737
sI1760
Vprogeny
p1738
sI1761
Vpromotes
p1739
sI1762
Vproof
p1740
sI1763
Vproportional
p1741
sI1764
Vproteome
p1742
sI1765
Vpsi(leaf
p1743
sI1766
Vpublished
p1744
sI1767
Vpumilio
p1745
sI1768
Vputatively
p1746
sI1769
VqPCR
p1747
sI1770
Vquantification
p1748
sI1771
Vquestion
p1749
sI1772
Vrachis
p1750
sI1773
Vreached
p1751
sI1774
Vreaction
p1752
sI1775
Vreadily
p1753
sI1776
Vredistribution
p1754
sI1777
Vredundancy
p1755
sI1778
Vrefilling
p1756
sI1779
Vreflect
p1757
sI1780
Vreflecting
p1758
sI1781
Vregion
p1759
sI1782
Vregulates
p1760
sI1783
Vreinhardtii
p1761
sI1784
Vrelease
p1762
sI1785
Vrely
p1763
sI1786
Vremobilization
p1764
sI1787
Vremoved
p1765
sI1788
Vrepeat
p1766
sI1789
Vreplication
p1767
sI1790
Vreported
p1768
sI1791
Vrepresent
p1769
sI1792
Vrepresses
p1770
sI1793
Vresonance
p1771
sI1794
Vresources
p1772
sI1795
Vrespect
p1773
sI1796
Vrespond
p1774
sI1797
Vresponded
p1775
sI1798
Vrestricted
p1776
sI1799
Vretranslocation
p1777
sI1800
Vreturn
p1778
sI1801
Vreveals
p1779
sI1802
Vrewatering
p1780
sI1803
Vrhizobacteria
p1781
sI1804
Vs-^0
p1782
sI1805
Vsafety
p1783
sI1806
Vsalicylic
p1784
sI1807
Vsampled
p1785
sI1808
Vsaplings
p1786
sI1809
Vsaturated
p1787
sI1810
Vsaturating
p1788
sI1811
Vscanning
p1789
sI1812
Vscavenger
p1790
sI1813
Vscreen
p1791
sI1814
Vseason
p1792
sI1815
Vseedling
p1793
sI1816
Vseems
p1794
sI1817
Vselection
p1795
sI1818
Vselenate
p1796
sI1819
Vseparation
p1797
sI1820
Vseven
p1798
sI1821
Vshift
p1799
sI1822
Vshrinkage
p1800
sI1823
Vsignature
p1801
sI1824
Vsilenced
p1802
sI1825
Vsimultaneous
p1803
sI1826
Vsodium
p1804
sI1827
Vspecial
p1805
sI1828
Vspecialization
p1806
sI1829
Vspecialized
p1807
sI1830
Vspp
p1808
sI1831
Vspr0
p1809
sI1832
Vspread
p1810
sI1833
Vstability
p1811
sI1834
Vstandard
p1812
sI1835
Vstatus
p1813
sI1836
Vsteady
p1814
sI1837
Vstimulus
p1815
sI1838
Vstunted
p1816
sI1839
Vsub
p1817
sI1840
Vsubcellular
p1818
sI1841
Vsubsets
p1819
sI1842
Vsubstitution
p1820
sI1843
Vsubstrate
p1821
sI1844
Vsuccess
p1822
sI1845
Vsunflower
p1823
sI1846
Vsurvival
p1824
sI1847
Vsylvatica
p1825
sI1848
Vsystems
p1826
sI1849
Vtarget
p1827
sI1850
Vtargeted
p1828
sI1851
Vtechniques
p1829
sI1852
Vtemperate
p1830
sI1853
Vtended
p1831
sI1854
Vterminated
p1832
sI1855
Vterms
p1833
sI1856
Vtetrazolium
p1834
sI1857
Vthird
p1835
sI1858
Vthreefold
p1836
sI1859
Vthreshold
p1837
sI1860
Vtips
p1838
sI1861
Vtoxicity
p1839
sI1862
Vtranscriptomic
p1840
sI1863
Vtransfer
p1841
sI1864
Vtransformation
p1842
sI1865
Vtransformed
p1843
sI1866
Vtransmission
p1844
sI1867
Vtrend
p1845
sI1868
Vtrichomes
p1846
sI1869
Vtriggers
p1847
sI1870
Vtritrophic
p1848
sI1871
Vtubulin
p1849
sI1872
Vtunable
p1850
sI1873
Vtypically
p1851
sI1874
Vultrastructure
p1852
sI1875
Vultraviolet
p1853
sI1876
Vunderlying
p1854
sI1877
Vunique
p1855
sI1878
Vunloading
p1856
sI1879
Vuntil
p1857
sI1880
Vuntransformants
p1858
sI1881
Vupper
p1859
sI1882
Vus
p1860
sI1883
Vvacuoles
p1861
sI1884
Vvapour
p1862
sI1885
Vvariants
p1863
sI1886
Vvaries
p1864
sI1887
Vvarieties
p1865
sI1888
Vvariety
p1866
sI1889
Vvascular
p1867
sI1890
Vvein
p1868
sI1891
Vveins
p1869
sI1892
Vverified
p1870
sI1893
Vviral
p1871
sI1894
Vvirgifera
p1872
sI1895
Vvulnerable
p1873
sI1896
Vwaxes
p1874
sI1897
Vwetter
p1875
sI1898
Vwhy
p1876
sI1899
Vwide
p1877
sI1900
Vwood
p1878
sI1901
Vwork
p1879
sI1902
Vwould
p1880
sI1903
Vyields
p1881
sI1904
Vyr
p1882
sI1905
V--
p1883
sI1906
V-ATPase
p1884
sI1907
V-morphogenesis
p1885
sI1908
V0'-domain
p1886
sI1909
V0,0'-Diaminobenzidine
p1887
sI1910
V0-
p1888
sI1911
V0-(0-carboxyphenyl)-0,0,0,0-tetramethylimidazoline-0-oxyl-0-oxide
p1889
sI1912
V0-P
p1890
sI1913
V0-aminocyclopropane-0-carboxylic
p1891
sI1914
V0-bisphosphate
p1892
sI1915
V0-diamino
p1893
sI1916
V0-hydroxyferulic
p1894
sI1917
V0-isopropylmalate
p1895
sI1918
V0-methylcyclopropene
p1896
sI1919
V0-month
p1897
sI1920
V0-year
p1898
sI1921
V0.0000
p1899
sI1922
V00)C
p1900
sI1923
V00)P
p1901
sI1924
V00-
p1902
sI1925
V00-fold
p1903
sI1926
V00-mum
p1904
sI1927
V00-oxo
p1905
sI1928
V00.0
p1906
sI1929
V00P
p1907
sI1930
V00S
p1908
sI1931
V00d
p1909
sI1932
V0:0
p1910
sI1933
V0A
p1911
sI1934
V0B
p1912
sI1935
V0C(leaf
p1913
sI1936
V0CO0
p1914
sI1937
V0CO0/^0
p1915
sI1938
V0D
p1916
sI1939
V0h
p1917
sI1940
V0n=00x=000
p1918
sI1941
V0yr
p1919
sI1942
VABA)-deficient
p1920
sI1943
VACS
p1921
sI1944
VAOC
p1922
sI1945
VAbove
p1923
sI1946
VAccessions
p1924
sI1947
VAcclimation
p1925
sI1948
VAcer
p1926
sI1949
VAchlorophyllous
p1927
sI1950
VAffymetrix
p1928
sI1951
VAfrica
p1929
sI1952
VAfrican
p1930
sI1953
VAgrobacterium
p1931
sI1954
VAir
p1932
sI1955
VAlaska
p1933
sI1956
VAlaskan
p1934
sI1957
VAlcohol
p1935
sI1958
VAn
p1936
sI1959
VAndropogonea
p1937
sI1960
VArbuscular
p1938
sI1961
VArmadillo
p1939
sI1962
VAsian
p1940
sI1963
VAssociation
p1941
sI1964
VAt
p1942
sI1965
VAtERFs
p1943
sI1966
VAtSGT0a
p1944
sI1967
VAuxin
p1945
sI1968
VBR
p1946
sI1969
VBRs
p1947
sI1970
VBY-0
p1948
sI1971
VBefore
p1949
sI1972
VBeta
p1950
sI1973
VBeyond
p1951
sI1974
VBiosynthesis
p1952
sI1975
VBirk
p1953
sI1976
VBnHO
p1954
sI1977
VBoMYB00
p1955
sI1978
VBoraginaceae
p1956
sI1979
VBowman
p1957
sI1980
VBrassinosteroids
p1958
sI1981
VBritish
p1959
sI1982
VC(c
p1960
sI1983
VC0and
p1961
sI1984
VC0grass
p1962
sI1985
VC0species
p1963
sI1986
VCO0release
p1964
sI1987
VCa0
p1965
sI1988
VCadmium
p1966
sI1989
VCan
p1967
sI1990
VCanopy
p1968
sI1991
VCape
p1969
sI1992
VCavitation
p1970
sI1993
VChile
p1971
sI1994
VChilling
p1972
sI1995
VChlorophyte
p1973
sI1996
VCho
p1974
sI1997
VClose
p1975
sI1998
VCluster
p1976
sI1999
VCoA
p1977
sI2000
VCold
p1978
sI2001
VCombining
p1979
sI2002
VComparative
p1980
sI2003
VComparison
p1981
sI2004
VComplementation
p1982
sI2005
VComprehensive
p1983
sI2006
VConditions
p1984
sI2007
VConsequently
p1985
sI2008
VConstitutive
p1986
sI2009
VConstrained
p1987
sI2010
VContents
p1988
sI2011
VContrasting
p1989
sI2012
VCorrelation
p1990
sI2013
VCritical
p1991
sI2014
VCryptantha
p1992
sI2015
VDAB
p1993
sI2016
VDFD
p1994
sI2017
VDMACA
p1995
sI2018
VDMI0/0
p1996
sI2019
VDPI
p1997
sI2020
VDarkness
p1998
sI2021
VDaucus
p1999
sI2022
VDay
p2000
sI2023
VDefects
p2001
sI2024
VDeletion
p2002
sI2025
VDelta
p2003
sI2026
VDepletion
p2004
sI2027
VDifferences
p2005
sI2028
VDifferentiating
p2006
sI2029
VDisentangling
p2007
sI2030
VDissection
p2008
sI2031
VDo
p2009
sI2032
VDrying
p2010
sI2033
VDunaliella
p2011
sI2034
VDynamic
p2012
sI2035
VEGFP
p2013
sI2036
VEMS
p2014
sI2037
VESTs
p2015
sI2038
VEco
p2016
sI2039
VEcologists
p2017
sI2040
VEctopic
p2018
sI2041
VEight
p2019
sI2042
VElectrophoretic
p2020
sI2043
VEpidermal
p2021
sI2044
VEquations
p2022
sI2045
VEscherichia
p2023
sI2046
VEthephon
p2024
sI2047
VEvidence
p2025
sI2048
VExoribonuclease
p2026
sI2049
VExotic
p2027
sI2050
VF(0
p2028
sI2051
VFFDs
p2029
sI2052
VFactors
p2030
sI2053
VFe)-hydrogenases
p2031
sI2054
VFirst
p2032
sI2055
VFlooding
p2033
sI2056
VFloret
p2034
sI2057
VFloristic
p2035
sI2058
VFluorescence
p2036
sI2059
VFull
p2037
sI2060
VFungal
p2038
sI2061
VFurther
p2039
sI2062
VG
sI2063
VG.
p2040
sI2064
VG0
p2041
sI2065
VGFP
p2042
sI2066
VGS0
p2043
sI2067
VGSH
p2044
sI2068
VGTPases
p2045
sI2069
VGY
p2046
sI2070
VGaew
p2047
sI2071
VGanges
p2048
sI2072
VGateway
p2049
sI2073
VGeneChip
p2050
sI2074
VGeneration
p2051
sI2075
VGenetic
p2052
sI2076
VGenomic
p2053
sI2077
VGibberellin
p2054
sI2078
VGlobally
p2055
sI2079
VGlutamine
p2056
sI2080
VGlycinebetaine
p2057
sI2081
VGuard
p2058
sI2082
VH+-ATPase
p2059
sI2083
VH0
p2060
sI2084
VHMG
p2061
sI2085
VHPLC)-ICP
p2062
sI2086
VHR
p2063
sI2087
VHS)-up
p2064
sI2088
VHaplotype
p2065
sI2089
VHeating
p2066
sI2090
VHelianthus
p2067
sI2091
VHigh
p2068
sI2092
VHistological
p2069
sI2093
VHost
p2070
sI2094
VHydraulic
p2071
sI2095
VHypoxia
p2072
sI2096
VIAA
p2073
sI2097
VII
p2074
sI2098
VIPMDH0/ipmdh0
p2075
sI2099
VIPMDHs
p2076
sI2100
VIV
p2077
sI2101
VImmunogold
p2078
sI2102
VImmunolabelling
p2079
sI2103
VImportantly
p2080
sI2104
VImproved
p2081
sI2105
VIncreased
p2082
sI2106
VInductively
p2083
sI2107
VInstantaneous
p2084
sI2108
VInterestingly
p2085
sI2109
VIntra
p2086
sI2110
VIntraspecific
p2087
sI2111
VInvaders
p2088
sI2112
VInvasive
p2089
sI2113
VInvestigating
p2090
sI2114
VInvolvement
p2091
sI2115
VIonomics
p2092
sI2116
VIsles
p2093
sI2117
VIsolation
p2094
sI2118
VIsopropylmalate
p2095
sI2119
VJ(max
p2096
sI2120
VJA)-isoleucine
p2097
sI2121
VJasmonate
p2098
sI2122
VJasmonic
p2099
sI2123
VK+
p2100
sI2124
VKnockdown
p2101
sI2125
VKnockout
p2102
sI2126
VKnowledge
p2103
sI2127
VKo
p2104
sI2128
VKok
p2105
sI2129
VKoku
p2106
sI2130
VLA
p2107
sI2131
VLD
p2108
sI2132
VLD-00
p2109
sI2133
VLIKE
p2110
sI2134
VLauraceae
p2111
sI2135
VLcrTFL0/LcrLFY
p2112
sI2136
VLeaves
p2113
sI2137
VLeu
p2114
sI2138
VLiriomyza
p2115
sI2139
VLolium
p2116
sI2140
VLongitudinal
p2117
sI2141
VLoop
p2118
sI2142
VLysine
p2119
sI2143
VMBB
p2120
sI2144
VMP00
p2121
sI2145
VMPa
p2122
sI2146
VMT0b
p2123
sI2147
VMT0b::Tos00
p2124
sI2148
VMYB
p2125
sI2149
VManagers
p2126
sI2150
VMap
p2127
sI2151
VMating
p2128
sI2152
VMeanwhile
p2129
sI2153
VMeasurements
p2130
sI2154
VMedicago
p2131
sI2155
VMel00
p2132
sI2156
VMeristem
p2133
sI2157
VMesorhizobium
p2134
sI2158
VMetabolite
p2135
sI2159
VMicroarray
p2136
sI2160
VMinimum
p2137
sI2161
VMoench
p2138
sI2162
VMolecular
p2139
sI2163
VMorphology
p2140
sI2164
VMtAOC0-RNAi
p2141
sI2165
VMtAOC0-sense
p2142
sI2166
VMultivariate
p2143
sI2167
VN.
p2144
sI2168
VNBT
p2145
sI2169
VNFP
p2146
sI2170
VNTR(M
p2147
sI2171
VNTR(O
p2148
sI2172
VNa+
p2149
sI2173
VNative
p2150
sI2174
VNeedles
p2151
sI2175
VNeither
p2152
sI2176
VNiche
p2153
sI2177
VNod
p2154
sI2178
VNonetheless
p2155
sI2179
VNotably
p2156
sI2180
VNupYC0.0
p2157
sI2181
VNutrient
p2158
sI2182
VO0-
p2159
sI2183
VOPDA
p2160
sI2184
VOSC0-silenced
p2161
sI2185
VOf
p2162
sI2186
VOnce
p2163
sI2187
VOne
p2164
sI2188
VOnly
p2165
sI2189
VOntogeny
p2166
sI2190
VOpius
p2167
sI2191
VOsHMA0-mediated
p2168
sI2192
VOscillations
p2169
sI2193
VOverall
p2170
sI2194
VP(0B
p2171
sI2195
VP00
p2172
sI2196
VP00-values
p2173
sI2197
VP0B
p2174
sI2198
VPCR)-based
p2175
sI2199
VPEPc
p2176
sI2200
VPVX
p2177
sI2201
VPaTFL0(TERMINAL
p2178
sI2202
VPanama
p2179
sI2203
VPast
p2180
sI2204
VPelargonium
p2181
sI2205
VPhe
p2182
sI2206
VPhotosynthesis
p2183
sI2207
VPhylloplane
p2184
sI2208
VPhylogenetic
p2185
sI2209
VPin
p2186
sI2210
VPinus
p2187
sI2211
VPlutella
p2188
sI2212
VPollinator
p2189
sI2213
VPopulus
p2190
sI2214
VPorosity
p2191
sI2215
VPositional
p2192
sI2216
VPossible
p2193
sI2217
VPost
p2194
sI2218
VPrimary
p2195
sI2219
VProximate
p2196
sI2220
VPseudomonas
p2197
sI2221
VPtdOH
p2198
sI2222
VPutative
p2199
sI2223
VQuercus
p2200
sI2224
VR0R0MYB
p2201
sI2225
VRNA
p2202
sI2226
VRP
p2203
sI2227
VRT
p2204
sI2228
VRamellet
p2205
sI2229
VRecovery
p2206
sI2230
VReduced
p2207
sI2231
VRefilling
p2208
sI2232
VRegion
p2209
sI2233
VRegulation
p2210
sI2234
VRemarkably
p2211
sI2235
VResistance
p2212
sI2236
VRespiration
p2213
sI2237
VRetranslocation
p2214
sI2238
VRoots
p2215
sI2239
VRumex
p2216
sI2240
VSA-
p2217
sI2241
VSD-00
p2218
sI2242
VSDs
p2219
sI2243
VSGT0/SGT0b
p2220
sI2244
VSLA
p2221
sI2245
VSNP
p2222
sI2246
VSRA
p2223
sI2247
VSYP000
p2224
sI2248
VSaccharum
p2225
sI2249
VScanning
p2226
sI2250
VScavenging
p2227
sI2251
VSe)-fortified
p2228
sI2252
VSeasonal
p2229
sI2253
VSeeds
p2230
sI2254
VSelenium
p2231
sI2255
VSensing
p2232
sI2256
VSeparating
p2233
sI2257
VSeventeen
p2234
sI2258
VSeveral
p2235
sI2259
VShort
p2236
sI2260
VSilenced
p2237
sI2261
VSilencing
p2238
sI2262
VSimilarly
p2239
sI2263
VSimple
p2240
sI2264
VSingle
p2241
sI2265
VSix
p2242
sI2266
VSolanum
p2243
sI2267
VSoluble
p2244
sI2268
VSome
p2245
sI2269
VSouth
p2246
sI2270
VSpain
p2247
sI2271
VSpatial
p2248
sI2272
VSpecies
p2249
sI2273
VSpecifically
p2250
sI2274
VSpodoptera
p2251
sI2275
VStomatal
p2252
sI2276
VStrategies
p2253
sI2277
VStrong
p2254
sI2278
VStructural
p2255
sI2279
VSuppression
p2256
sI2280
VSurface
p2257
sI2281
VSystemic
p2258
sI2282
VTATA
p2259
sI2283
VTERMINAL
p2260
sI2284
VTF
p2261
sI2285
VTFAR0
p2262
sI2286
VTaGS0
p2263
sI2287
VTaGS0-A0
p2264
sI2288
VTaGS0-B0
p2265
sI2289
VTaGS0-D0
p2266
sI2290
VTcherkez
p2267
sI2291
VTheir
p2268
sI2292
VThen
p2269
sI2293
VThirty
p2270
sI2294
VTomatiga
p2271
sI2295
VTotal
p2272
sI2296
VTranscriptome
p2273
sI2297
VTransformation
p2274
sI2298
VTransient
p2275
sI2299
VTransmission
p2276
sI2300
VTree
p2277
sI2301
VTrees
p2278
sI2302
VTurnip
p2279
sI2303
VUK
p2280
sI2304
VUV)-B
p2281
sI2305
VUbiquitin-00
p2282
sI2306
VUbiqutin-00
p2283
sI2307
VUpon
p2284
sI2308
VUse
p2285
sI2309
VUsing
p2286
sI2310
VUstilago
p2287
sI2311
VV(cmax
p2288
sI2312
VV.
p2289
sI2313
VValsa
p2290
sI2314
VVariations
p2291
sI2315
VVarious
p2292
sI2316
VVirus
p2293
sI2317
VVoss
p2294
sI2318
VVulnerability
p2295
sI2319
VWhether
p2296
sI2320
VWhile
p2297
sI2321
VWith
p2298
sI2322
VWithin
p2299
sI2323
VWithout
p2300
sI2324
VXRN0
p2301
sI2325
VYUCCA
p2302
sI2326
Vaberrant
p2303
sI2327
Vable
p2304
sI2328
Vabnormalities
p2305
sI2329
Vabolished
p2306
sI2330
Vaborted
p2307
sI2331
Vabsolute
p2308
sI2332
Vabsorption
p2309
sI2333
Vabstraction
p2310
sI2334
Vabundances
p2311
sI2335
Vacceptance
p2312
sI2336
Vaccepted
p2313
sI2337
Vaccession
p2314
sI2338
Vaccompanied
p2315
sI2339
Vaccompany
p2316
sI2340
Vaccording
p2317
sI2341
Vaccordingly
p2318
sI2342
Vaccount
p2319
sI2343
Vaccounted
p2320
sI2344
Vaccounting
p2321
sI2345
Vaccounts
p2322
sI2346
Vacetate
p2323
sI2347
Vactin
p2324
sI2348
Vactinorhizal
p2325
sI2349
Vaction
p2326
sI2350
Vactivating
p2327
sI2351
Vactive
p2328
sI2352
Vactual
p2329
sI2353
Vacyl
p2330
sI2354
Vacyl-
p2331
sI2355
Vadaxial
p2332
sI2356
Vadditionally
p2333
sI2357
Vadditions
p2334
sI2358
Vaddressed
p2335
sI2359
Vadenylate
p2336
sI2360
Vadvanced
p2337
sI2361
Vadventitious
p2338
sI2362
Vaequorin
p2339
sI2363
Vaeration
p2340
sI2364
Vaerenchymal
p2341
sI2365
Vaerial
p2342
sI2366
Vaestivum
p2343
sI2367
Vaffects
p2344
sI2368
Vage
p2345
sI2369
Vages
p2346
sI2370
Vaggregated
p2347
sI2371
Vago
p2348
sI2372
Vagreement
p2349
sI2373
Vagrees
p2350
sI2374
Vagricultural
p2351
sI2375
Vagronomical
p2352
sI2376
Vagronomists
p2353
sI2377
Vaim
p2354
sI2378
Vaimed
p2355
sI2379
Vairspace
p2356
sI2380
Val.
p2357
sI2381
Valbeit
p2358
sI2382
Valia
p2359
sI2383
Vallelic
p2360
sI2384
Vallelopathic
p2361
sI2385
Valmost
p2362
sI2386
Valter
p2363
sI2387
Valteration
p2364
sI2388
Valternative
p2365
sI2389
Valtitudinal
p2366
sI2390
Valways
p2367
sI2391
Vambient
p2368
sI2392
Vamounts
p2369
sI2393
Vamplify
p2370
sI2394
Vamplitude
p2371
sI2395
Vamylases
p2372
sI2396
Vanaerobically
p2373
sI2397
Vanaerobiosis
p2374
sI2398
Vanalogue
p2375
sI2399
Vanalysing
p2376
sI2400
Vanalytically
p2377
sI2401
Vanalyze
p2378
sI2402
Vanalyzing
p2379
sI2403
Vannotated
p2380
sI2404
Vannuus
p2381
sI2405
Vanother
p2382
sI2406
Vanoxic
p2383
sI2407
Vantibodies
p2384
sI2408
Vany
p2385
sI2409
Vapex
p2386
sI2410
Vapoplast
p2387
sI2411
Vappear
p2388
sI2412
Vapplicability
p2389
sI2413
Vapplying
p2390
sI2414
Vapproached
p2391
sI2415
Vaquaporins
p2392
sI2416
Varchitectural
p2393
sI2417
Varidland
p2394
sI2418
Varound
p2395
sI2419
Varrest
p2396
sI2420
Varrested
p2397
sI2421
Vartificial
p2398
sI2422
Vartificially
p2399
sI2423
Vascospores
p2400
sI2424
Vassays
p2401
sI2425
Vassembled
p2402
sI2426
Vassess
p2403
sI2427
Vassessing
p2404
sI2428
Vassessment
p2405
sI2429
Vassimilatory
p2406
sI2430
Vassociations
p2407
sI2431
Vasterid
p2408
sI2432
Vatmospheric
p2409
sI2433
Vatoms
p2410
sI2434
VatrbohD
p2411
sI2435
VatrbohF
p2412
sI2436
Vattack
p2413
sI2437
Vattempts
p2414
sI2438
Vattenuated
p2415
sI2439
Vattenuates
p2416
sI2440
Vattracting
p2417
sI2441
Vattractive
p2418
sI2442
Vattribute
p2419
sI2443
Vautopolyploid
p2420
sI2444
Vautumn
p2421
sI2445
Vavailable
p2422
sI2446
Vaveraged
p2423
sI2447
Vavoided
p2424
sI2448
Vaway
p2425
sI2449
Vbackground
p2426
sI2450
Vballast
p2427
sI2451
Vbasal
p2428
sI2452
Vbasic
p2429
sI2453
Vbecomes
p2430
sI2454
Vbeech
p2431
sI2455
Vbehind
p2432
sI2456
Vbelow
p2433
sI2457
Vbenzoxazinoids
p2434
sI2458
Vbest
p2435
sI2459
Vbind
p2436
sI2460
Vbio
p2437
sI2461
Vbiodiversity
p2438
sI2462
Vbiofortification
p2439
sI2463
Vbiomarkers
p2440
sI2464
Vbiotechnological
p2441
sI2465
Vbiotic
p2442
sI2466
Vbiotrophic
p2443
sI2467
Vblack
p2444
sI2468
Vblock
p2445
sI2469
Vblocked
p2446
sI2470
Vblocking
p2447
sI2471
Vbody
p2448
sI2472
Vbolting
p2449
sI2473
Vboreal
p2450
sI2474
Vborne
p2451
sI2475
Vbound
p2452
sI2476
Vbox
p2453
sI2477
Vbox-
p2454
sI2478
Vbrassinosteroids
p2455
sI2479
Vbreeders
p2456
sI2480
Vbridging
p2457
sI2481
Vbroad
p2458
sI2482
Vbrome
p2459
sI2483
Vbuffering
p2460
sI2484
Vbundle
p2461
sI2485
Vbundles
p2462
sI2486
Vc
sI2487
Vc.
p2463
sI2488
VcPTIO
p2464
sI2489
Vcalibration
p2465
sI2490
Vcalls
p2466
sI2491
Vcalmodulin
p2467
sI2492
Vcancer
p2468
sI2493
Vcandidate
p2469
sI2494
Vcarbonyl
p2470
sI2495
Vcarboxylase
p2471
sI2496
Vcarota
p2472
sI2497
Vcarrying
p2473
sI2498
Vcascade
p2474
sI2499
Vcassette
p2475
sI2500
Vcatalase
p2476
sI2501
Vcatalogue
p2477
sI2502
Vcatalysing
p2478
sI2503
Vcatalyze
p2479
sI2504
Vcaterpillars
p2480
sI2505
Vcausing
p2481
sI2506
Vcautious
p2482
sI2507
Vcellulose
p2483
sI2508
Vcent
p2484
sI2509
Vcenter
p2485
sI2510
Vcentral
p2486
sI2511
Vcentury
p2487
sI2512
Vceramide
p2488
sI2513
Vcessation
p2489
sI2514
Vchallenge
p2490
sI2515
Vchallenged
p2491
sI2516
Vchallenges
p2492
sI2517
Vchambers
p2493
sI2518
Vcheck
p2494
sI2519
Vchemiluminescence
p2495
sI2520
Vchemistry
p2496
sI2521
Vchemotypes
p2497
sI2522
Vchewing
p2498
sI2523
Vchloride
p2499
sI2524
Vchlorotic
p2500
sI2525
Vchose
p2501
sI2526
Vchromosome
p2502
sI2527
Vchromosomes
p2503
sI2528
Vcircadian
p2504
sI2529
Vclade
p2505
sI2530
Vclades
p2506
sI2531
Vclaim
p2507
sI2532
Vclamp
p2508
sI2533
Vclasses
p2509
sI2534
Vclassification
p2510
sI2535
Vclearly
p2511
sI2536
Vclipping
p2512
sI2537
Vclock
p2513
sI2538
Vcloned
p2514
sI2539
Vclones
p2515
sI2540
Vclose
p2516
sI2541
Vclosely
p2517
sI2542
Vcloser
p2518
sI2543
Vclosures
p2519
sI2544
Vclues
p2520
sI2545
Vclustered
p2521
sI2546
Vclusters
p2522
sI2547
Vcodon
p2523
sI2548
Vcoenzyme
p2524
sI2549
Vcoexist
p2525
sI2550
Vcohesive
p2526
sI2551
Vcohesiveness
p2527
sI2552
Vcoincide
p2528
sI2553
Vcoli
p2529
sI2554
Vcollected
p2530
sI2555
Vcolonization
p2531
sI2556
Vcolonizing
p2532
sI2557
Vcolour
p2533
sI2558
Vcolouration
p2534
sI2559
Vcombining
p2535
sI2560
Vcommercial
p2536
sI2561
Vcomparable
p2537
sI2562
Vcomparative
p2538
sI2563
Vcompartment
p2539
sI2564
Vcompatibility
p2540
sI2565
Vcomplemented
p2541
sI2566
Vcompletely
p2542
sI2567
Vcompletion
p2543
sI2568
Vcomponent
p2544
sI2569
Vcomposite
p2545
sI2570
Vcomprehensive
p2546
sI2571
Vcomprising
p2547
sI2572
Vcomputed
p2548
sI2573
Vconcerted
p2549
sI2574
Vconcluded
p2550
sI2575
Vconduit
p2551
sI2576
Vconduits
p2552
sI2577
Vconferred
p2553
sI2578
Vconflicting
p2554
sI2579
Vconfocal
p2555
sI2580
Vconfound
p2556
sI2581
Vconifer
p2557
sI2582
Vconifers
p2558
sI2583
Vconnection
p2559
sI2584
Vconsequent
p2560
sI2585
Vconserve
p2561
sI2586
Vconsidered
p2562
sI2587
Vconsistently
p2563
sI2588
Vconstitutively
p2564
sI2589
Vconstraint
p2565
sI2590
Vconstructed
p2566
sI2591
Vconstructs
p2567
sI2592
Vconsumption
p2568
sI2593
Vcontacted
p2569
sI2594
Vcontain
p2570
sI2595
Vcontext
p2571
sI2596
Vcontinuous
p2572
sI2597
Vcontributing
p2573
sI2598
Vcontributions
p2574
sI2599
Vcontrollers
p2575
sI2600
Vcontroversial
p2576
sI2601
Vcontroversy
p2577
sI2602
Vconvergence
p2578
sI2603
Vcooked
p2579
sI2604
Vcoordinated
p2580
sI2605
Vcoordination
p2581
sI2606
Vcorolla
p2582
sI2607
Vcoronatine
p2583
sI2608
Vcorrelating
p2584
sI2609
Vcorrespond
p2585
sI2610
Vcover
p2586
sI2611
Vcovering
p2587
sI2612
Vcrease
p2588
sI2613
Vcreate
p2589
sI2614
Vcreticus
p2590
sI2615
Vcritically
p2591
sI2616
Vcrossed
p2592
sI2617
Vcrucifer
p2593
sI2618
Vcrucifers
p2594
sI2619
Vcues
p2595
sI2620
Vcumulative
p2596
sI2621
Vcurves
p2597
sI2622
Vcuts
p2598
sI2623
Vcv
p2599
sI2624
Vcycles
p2600
sI2625
Vcycling
p2601
sI2626
Vcysteine
p2602
sI2627
Vcytokinin
p2603
sI2628
Vcytokinins
p2604
sI2629
Vcytological
p2605
sI2630
Vcytoplasmic
p2606
sI2631
Vdarkly
p2607
sI2632
Vdates
p2608
sI2633
Vde
p2609
sI2634
Vdebate
p2610
sI2635
Vdecade
p2611
sI2636
Vdecades
p2612
sI2637
Vdecarboxylation
p2613
sI2638
Vdecline
p2614
sI2639
Vdecoding
p2615
sI2640
Vdecreases
p2616
sI2641
Vdeduced
p2617
sI2642
Vdeep
p2618
sI2643
Vdeepens
p2619
sI2644
Vdefect
p2620
sI2645
Vdefectively
p2621
sI2646
Vdeficiency
p2622
sI2647
Vdefined
p2623
sI2648
Vdefinition
p2624
sI2649
Vdeformed
p2625
sI2650
Vdehydration
p2626
sI2651
Vdelayed
p2627
sI2652
Vdeletion
p2628
sI2653
Vdeletions
p2629
sI2654
Vdeliver
p2630
sI2655
Vdemonstrates
p2631
sI2656
Vdependence
p2632
sI2657
Vdepression
p2633
sI2658
Vdeprivation
p2634
sI2659
Vdescribe
p2635
sI2660
Vdeserts
p2636
sI2661
Vdeserves
p2637
sI2662
Vdesiccation
p2638
sI2663
Vdetailed
p2639
sI2664
Vdetect
p2640
sI2665
Vdetectable
p2641
sI2666
Vdetection
p2642
sI2667
Vdeterminate
p2643
sI2668
Vdetermines
p2644
sI2669
Vdevoid
p2645
sI2670
Vdiacetate
p2646
sI2671
Vdiamondback
p2647
sI2672
Vdiet
p2648
sI2673
Vdiffer
p2649
sI2674
Vdiffers
p2650
sI2675
Vdifficult
p2651
sI2676
Vdiffuse
p2652
sI2677
Vdimension
p2653
sI2678
Vdimensional
p2654
sI2679
Vdimensions
p2655
sI2680
Vdimethylarsinic
p2656
sI2681
Vdiscernible
p2657
sI2682
Vdiscrete
p2658
sI2683
Vdiscriminative
p2659
sI2684
Vdismutase
p2660
sI2685
Vdisplayed
p2661
sI2686
Vdisplays
p2662
sI2687
Vdisruption
p2663
sI2688
Vdissected
p2664
sI2689
Vdissection
p2665
sI2690
Vdissitus
p2666
sI2691
Vdistances
p2667
sI2692
Vdistinguishable
p2668
sI2693
Vdisturbance
p2669
sI2694
Vdiurnally
p2670
sI2695
Vdiverse
p2671
sI2696
Vdivided
p2672
sI2697
Vdocument
p2673
sI2698
Vdocumented
p2674
sI2699
Vdodecylsulfate
p2675
sI2700
Vdomains
p2676
sI2701
Vdomestication
p2677
sI2702
Vdormancy
p2678
sI2703
Vdoubled
p2679
sI2704
Vdoubly
p2680
sI2705
Vdownregulation
p2681
sI2706
Vdraw
p2682
sI2707
Vdrawdown
p2683
sI2708
Vdriver
p2684
sI2709
Vdriving
p2685
sI2710
Vdropped
p2686
sI2711
Vdrug
p2687
sI2712
Vduplications
p2688
sI2713
Vduration
p2689
sI2714
Vdyads
p2690
sI2715
Vdye
p2691
sI2716
Vdyes
p2692
sI2717
Vdynamically
p2693
sI2718
Ve.g.
p2694
sI2719
Veasily
p2695
sI2720
Veastern
p2696
sI2721
Veco
p2697
sI2722
Vecologically
p2698
sI2723
Vecology
p2699
sI2724
Veconomically
p2700
sI2725
Vecotype
p2701
sI2726
Vecotypes
p2702
sI2727
Vecotypic
p2703
sI2728
Vectomycorrhizae
p2704
sI2729
Vectomycorrhizas
p2705
sI2730
Vefficient
p2706
sI2731
Vefforts
p2707
sI2732
Veightfold
p2708
sI2733
Veighty
p2709
sI2734
Velectrone
p2710
sI2735
Velectrophoresis
p2711
sI2736
Velevated
p2712
sI2737
Velucidate
p2713
sI2738
Vembryo
p2714
sI2739
Vembryonic
p2715
sI2740
Vemission
p2716
sI2741
Vemissions
p2717
sI2742
Vempirical
p2718
sI2743
Venables
p2719
sI2744
Vencoded
p2720
sI2745
Vendosymbiotic
p2721
sI2746
Vengagement
p2722
sI2747
Vengineered
p2723
sI2748
Venhance
p2724
sI2749
Venhancing
p2725
sI2750
Venrichment
p2726
sI2751
Venter
p2727
sI2752
Ventire
p2728
sI2753
Vepinephrine
p2729
sI2754
Vequally
p2730
sI2755
Vequations
p2731
sI2756
Vescaped
p2732
sI2757
Vestimates
p2733
sI2758
Vestimating
p2734
sI2759
Vet
p2735
sI2760
Vethanol
p2736
sI2761
Vethyl
p2737
sI2762
Vethylene-
p2738
sI2763
Vevaluates
p2739
sI2764
Vevident
p2740
sI2765
Vevolving
p2741
sI2766
Vexceeded
p2742
sI2767
Vexceeding
p2743
sI2768
Vexcellent
p2744
sI2769
Vexcept
p2745
sI2770
Vexception
p2746
sI2771
Vexerts
p2747
sI2772
Vexhaustion
p2748
sI2773
Vexistence
p2749
sI2774
Vexisting
p2750
sI2775
Vexogenously
p2751
sI2776
Vexon
p2752
sI2777
Vexons
p2753
sI2778
Vexotics
p2754
sI2779
Vexpanding
p2755
sI2780
Vexpansins
p2756
sI2781
Vexperience
p2757
sI2782
Vexperienced
p2758
sI2783
Vexperimentation
p2759
sI2784
Vexplain
p2760
sI2785
Vexploit
p2761
sI2786
Vexploited
p2762
sI2787
Vexplored
p2763
sI2788
Vextend
p2764
sI2789
Vextensions
p2765
sI2790
Vextensively
p2766
sI2791
Vexternal
p2767
sI2792
Vextra
p2768
sI2793
Vexudates
p2769
sI2794
Vexuding
p2770
sI2795
Vfacing
p2771
sI2796
Vfactorial
p2772
sI2797
Vfailed
p2773
sI2798
Vfall
p2774
sI2799
Vfaster
p2775
sI2800
Vfavorable
p2776
sI2801
Vfavoured
p2777
sI2802
Vfeatures
p2778
sI2803
Vfecundity
p2779
sI2804
Vfeedback
p2780
sI2805
Vfeedbacks
p2781
sI2806
Vfelled
p2782
sI2807
Vfemale
p2783
sI2808
Vfertilized
p2784
sI2809
Vfew
p2785
sI2810
Vfewer
p2786
sI2811
Vfilamentous
p2787
sI2812
Vfilial
p2788
sI2813
Vfiltering
p2789
sI2814
Vfilters
p2790
sI2815
Vfinal
p2791
sI2816
Vfinally
p2792
sI2817
Vfingerprint
p2793
sI2818
Vfit
p2794
sI2819
Vfitness
p2795
sI2820
Vfive
p2796
sI2821
Vfixers
p2797
sI2822
Vflacca
p2798
sI2823
Vflag
p2799
sI2824
Vflanking
p2800
sI2825
Vflava
p2801
sI2826
Vflavonoid
p2802
sI2827
Vflexible
p2803
sI2828
Vflies
p2804
sI2829
Vflooding
p2805
sI2830
Vflorets
p2806
sI2831
Vfluoresceine
p2807
sI2832
Vfluxes
p2808
sI2833
Vfocus
p2809
sI2834
Vfocusing
p2810
sI2835
Vfocussed
p2811
sI2836
Vfolds
p2812
sI2837
Vfollow
p2813
sI2838
Vfollowed
p2814
sI2839
Vforces
p2815
sI2840
Vform
p2816
sI2841
Vformal
p2817
sI2842
Vformer
p2818
sI2843
Vfortified
p2819
sI2844
Vfourth
p2820
sI2845
Vframework
p2821
sI2846
Vfrequencies
p2822
sI2847
Vfruiting
p2823
sI2848
Vfunctions
p2824
sI2849
Vfused
p2825
sI2850
Vfuture
p2826
sI2851
Vg(m)/g(s
p2827
sI2852
Vgametophyte
p2828
sI2853
Vgel
p2829
sI2854
Vgenerality
p2830
sI2855
Vgeneralization
p2831
sI2856
Vgenerally
p2832
sI2857
Vgenerate
p2833
sI2858
Vgenerative
p2834
sI2859
Vgenetics
p2835
sI2860
Vgenomic
p2836
sI2861
Vgenotyped
p2837
sI2862
Vgeo
p2838
sI2863
Vgeographic
p2839
sI2864
Vgives
p2840
sI2865
Vgland
p2841
sI2866
Vglandular
p2842
sI2867
Vglobally
p2843
sI2868
Vglucoraphanin
p2844
sI2869
Vglucose
p2845
sI2870
Vglucuronidase
p2846
sI2871
Vglyceraldehyde-0-phosphate
p2847
sI2872
Vglycinebetaine
p2848
sI2873
Vglycogen
p2849
sI2874
Vglycol
p2850
sI2875
Vglycolysis
p2851
sI2876
Vglycolytic
p2852
sI2877
Vglycophytes
p2853
sI2878
Vglyoxylate
p2854
sI2879
Vgoal
p2855
sI2880
Vgoverned
p2856
sI2881
Vgradual
p2857
sI2882
Vgradually
p2858
sI2883
Vgravitropism
p2859
sI2884
Vgreat
p2860
sI2885
Vgreatest
p2861
sI2886
Vgreatly
p2862
sI2887
Vgrouping
p2863
sI2888
Vgrow
p2864
sI2889
Vgt;00
p2865
sI2890
Vhalf
p2866
sI2891
Vhalophytes
p2867
sI2892
Vhalved
p2868
sI2893
Vhand
p2869
sI2894
Vhaplo
p2870
sI2895
Vhaploid
p2871
sI2896
Vhaplotype
p2872
sI2897
Vharbour
p2873
sI2898
Vhead
p2874
sI2899
Vhealth
p2875
sI2900
Vheartwood
p2876
sI2901
Vheated
p2877
sI2902
Vheight
p2878
sI2903
Vheld
p2879
sI2904
Vherbivorous
p2880
sI2905
Vhere
p2881
sI2906
Vheterotrophic
p2882
sI2907
Vholds
p2883
sI2908
Vhomogalacturonans
p2884
sI2909
Vhomologs
p2885
sI2910
Vhormones
p2886
sI2911
Vhorticultural
p2887
sI2912
Vhotspot
p2888
sI2913
Vhuidobrensis
p2889
sI2914
Vhundred
p2890
sI2915
Vhybrid
p2891
sI2916
Vhydrated
p2892
sI2917
Vhydraulically
p2893
sI2918
Vhydraulics
p2894
sI2919
Vhydroculture
p2895
sI2920
Vhydrogenase
p2896
sI2921
Vhydrology
p2897
sI2922
Vhydrolysis
p2898
sI2923
Vhyperaccumulation
p2899
sI2924
Vhyperaccumulator
p2900
sI2925
Vhyphopodium
p2901
sI2926
Vhypotheses
p2902
sI2927
Vhypoxic
p2903
sI2928
Videntity
p2904
sI2929
Villumination
p2905
sI2930
Vimpaired
p2906
sI2931
Vimpairs
p2907
sI2932
Vimperative
p2908
sI2933
Vimplicated
p2909
sI2934
Vimplied
p2910
sI2935
Vimply
p2911
sI2936
Vimprove
p2912
sI2937
Vimprovement
p2913
sI2938
Vinaccessible
p2914
sI2939
Vincludes
p2915
sI2940
Vincorporating
p2916
sI2941
Vincrements
p2917
sI2942
Vincubated
p2918
sI2943
Vincubation
p2919
sI2944
Vincurred
p2920
sI2945
Vindependence
p2921
sI2946
Vindependent
p2922
sI2947
Vindicative
p2923
sI2948
Vindicator
p2924
sI2949
Vindistinguishable
p2925
sI2950
Vindividual
p2926
sI2951
Vinduces
p2927
sI2952
Vinducing
p2928
sI2953
Vinductively
p2929
sI2954
Vinfested
p2930
sI2955
Vinfiltration
p2931
sI2956
Vinfluence
p2932
sI2957
Vinfluencing
p2933
sI2958
Vinflux
p2934
sI2959
Vinitial
p2935
sI2960
Vinoculant
p2936
sI2961
Vinoculum
p2937
sI2962
Vinsect
p2938
sI2963
Vinsects
p2939
sI2964
Vinsensitive
p2940
sI2965
Vinside
p2941
sI2966
Vinsights
p2942
sI2967
Vinstance
p2943
sI2968
Vinstantaneous
p2944
sI2969
Vinstead
p2945
sI2970
Vinsufficiency
p2946
sI2971
Vintegral
p2947
sI2972
Vintegrated
p2948
sI2973
Vintegration
p2949
sI2974
Vintegrative
p2950
sI2975
Vintensities
p2951
sI2976
Vintensity
p2952
sI2977
Vinteract
p2953
sI2978
Vinteracted
p2954
sI2979
Vinteracts
p2955
sI2980
Vintermediates
p2956
sI2981
Vinternodal
p2957
sI2982
Vinterpreted
p2958
sI2983
Vinterrupted
p2959
sI2984
Vintervals
p2960
sI2985
Vintraspecific
p2961
sI2986
Vintroduced
p2962
sI2987
Vinvaded
p2963
sI2988
Vinvader
p2964
sI2989
Vinvertase
p2965
sI2990
Vinvestigates
p2966
sI2991
Vinvestigating
p2967
sI2992
Vinvestigation
p2968
sI2993
Vinvestment
p2969
sI2994
Vionomics
p2970
sI2995
Vipmdh0/ipmdh0
p2971
sI2996
Virradiance
p2972
sI2997
Virrigation
p2973
sI2998
Visoelectric
p2974
sI2999
Visoform
p2975
sI3000
Visoforms
p2976
sI3001
Visolate
p2977
sI3002
Visopropylmalate
p2978
sI3003
Vitalica
p2979
sI3004
Vitself
p2980
sI3005
Vjaponica
p2981
sI3006
Vjasmonates
p2982
sI3007
Vkind
p2983
sI3008
Vkinetic
p2984
sI3009
Vknock
p2985
sI3010
Vknowledge
p2986
sI3011
Vlabelled
p2987
sI3012
Vlacked
p2988
sI3013
Vlacking
p2989
sI3014
Vlacks
p2990
sI3015
Vlactone
p2991
sI3016
Vlag
p2992
sI3017
Vlamella
p2993
sI3018
Vlarvae
p2994
sI3019
Vlarval
p2995
sI3020
Vlate
p2996
sI3021
Vlead
p2997
sI3022
Vleading
p2998
sI3023
Vleafminer
p2999
sI3024
Vleast
p3000
sI3025
Vlengths
p3001
sI3026
Vlepidopteran
p3002
sI3027
Vlesser
p3003
sI3028
Vlethal
p3004
sI3029
Vlibraries
p3005
sI3030
Vlifetime
p3006
sI3031
Vlineages
p3007
sI3032
Vlinearly
p3008
sI3033
Vlinking
p3009
sI3034
Vlittoralis
p3010
sI3035
Vliving
p3011
sI3036
Vloaded
p3012
sI3037
Vlocal
p3013
sI3038
Vlocalized
p3014
sI3039
Vlocation
p3015
sI3040
Vlocations
p3016
sI3041
Vloci
p3017
sI3042
Vlocus
p3018
sI3043
Vloop
p3019
sI3044
Vloosening
p3020
sI3045
Vlosses
p3021
sI3046
Vloti
p3022
sI3047
Vlt;0.0
p3023
sI3048
Vlt;000
p3024
sI3049
Vlycopersicum
p3025
sI3050
Vlysis
p3026
sI3051
VmM
p3027
sI3052
Vmachinery
p3028
sI3053
Vmacrofungi
p3029
sI3054
Vmain
p3030
sI3055
Vmaintained
p3031
sI3056
Vmajus
p3032
sI3057
Vmalate
p3033
sI3058
Vmanage
p3034
sI3059
Vmanipulation
p3035
sI3060
Vmarginal
p3036
sI3061
Vmarine
p3037
sI3062
Vmarkedly
p3038
sI3063
Vmarking
p3039
sI3064
Vmatch
p3040
sI3065
Vmaternal
p3041
sI3066
Vmathematical
p3042
sI3067
Vmaturing
p3043
sI3068
Vmaturity
p3044
sI3069
Vmaximal
p3045
sI3070
Vmeadows
p3046
sI3071
Vmeasure
p3047
sI3072
Vmeasuring
p3048
sI3073
Vmediate
p3049
sI3074
Vmeiotic
p3050
sI3075
Vmeliloti
p3051
sI3076
Vmembers
p3052
sI3077
Vmentioned
p3053
sI3078
Vmercury
p3054
sI3079
Vmesocosm
p3055
sI3080
Vmetabolome
p3056
sI3081
Vmetabolomics
p3057
sI3082
Vmethane
p3058
sI3083
Vmethanesulfonate)-mutagenized
p3059
sI3084
Vmethanolic
p3060
sI3085
VmiRNA
p3061
sI3086
VmicroRNA
p3062
sI3087
Vmicroarray
p3063
sI3088
Vmicroelectrode
p3064
sI3089
Vmicrographs
p3065
sI3090
Vmicronutrient
p3066
sI3091
Vmicroorganisms
p3067
sI3092
Vmicroscope
p3068
sI3093
Vmicroscopic
p3069
sI3094
Vmiddle
p3070
sI3095
Vmimicked
p3071
sI3096
Vmimics
p3072
sI3097
Vminiaturized
p3073
sI3098
Vmisleading
p3074
sI3099
Vmismatch
p3075
sI3100
Vmissing
p3076
sI3101
Vmitotic
p3077
sI3102
Vmixing
p3078
sI3103
Vmixture
p3079
sI3104
Vmobilization
p3080
sI3105
Vmode
p3081
sI3106
Vmoderate
p3082
sI3107
Vmodifies
p3083
sI3108
Vmodifying
p3084
sI3109
Vmodular
p3085
sI3110
Vmolecules
p3086
sI3111
Vmonitoring
p3087
sI3112
Vmonobromobimane
p3088
sI3113
Vmonochlorobimane
p3089
sI3114
Vmonoclonal
p3090
sI3115
Vmonosaccharides
p3091
sI3116
Vmonospecific
p3092
sI3117
Vmoth
p3093
sI3118
Vmother
p3094
sI3119
Vmotivated
p3095
sI3120
Vmotivation
p3096
sI3121
Vmounting
p3097
sI3122
Vmovements
p3098
sI3123
Vmultiple
p3099
sI3124
Vmutualistic
p3100
sI3125
Vmycoheterotrophy
p3101
sI3126
Vmycorrhizas
p3102
sI3127
Vmyoblastoma
p3103
sI3128
Vnamely
p3104
sI3129
Vnatives
p3105
sI3130
Vnaturally
p3106
sI3131
Vnearly
p3107
sI3132
Vnecessarily
p3108
sI3133
Vnecessary
p3109
sI3134
Vneeded
p3110
sI3135
Vneighbors
p3111
sI3136
Vneighbouring
p3112
sI3137
Vneither
p3113
sI3138
Vneophytes
p3114
sI3139
Vnested
p3115
sI3140
Vnever
p3116
sI3141
Vniches
p3117
sI3142
Vnightly
p3118
sI3143
Vnine
p3119
sI3144
Vnm
p3120
sI3145
Vnode
p3121
sI3146
Vnodulation
p3122
sI3147
Vnonlegume
p3123
sI3148
Vnonlegumes
p3124
sI3149
Vnonsterile
p3125
sI3150
Vnorth
p3126
sI3151
Vnovelty
p3127
sI3152
Vnuanced
p3128
sI3153
Vnucleating
p3129
sI3154
Vnucleus
p3130
sI3155
Vnumbers
p3131
sI3156
Vnutrients
p3132
sI3157
Vnutritional
p3133
sI3158
Vnutritionally
p3134
sI3159
Voak
p3135
sI3160
Vobservation
p3136
sI3161
Vobtained
p3137
sI3162
Voccupancy
p3138
sI3163
Voccupied
p3139
sI3164
Voccur
p3140
sI3165
Voccurring
p3141
sI3166
Voffering
p3142
sI3167
Vofficinarum
p3143
sI3168
Voffs
p3144
sI3169
Volder
p3145
sI3170
Voleracea
p3146
sI3171
Voligoarray
p3147
sI3172
Vonce
p3148
sI3173
Vontogenetic
p3149
sI3174
Vontogenetically
p3150
sI3175
Voptimization
p3151
sI3176
Vorchids
p3152
sI3177
Vordination
p3153
sI3178
Vorganellar
p3154
sI3179
Voriginated
p3155
sI3180
Vortholog
p3156
sI3181
Vorthologs
p3157
sI3182
Voscillatory
p3158
sI3183
Vothers
p3159
sI3184
Votherwise
p3160
sI3185
Vout
p3161
sI3186
Voutbreaks
p3162
sI3187
Voutside
p3163
sI3188
Voveraccumulating
p3164
sI3189
Voverall
p3165
sI3190
Voverdevelopment
p3166
sI3191
Voverestimated
p3167
sI3192
Voverexpressing
p3168
sI3193
Voverlapping
p3169
sI3194
Vovipositing
p3170
sI3195
Voviposits
p3171
sI3196
Vovular
p3172
sI3197
Vowing
p3173
sI3198
Voxygenases
p3174
sI3199
Voxylipins
p3175
sI3200
Vpaid
p3176
sI3201
Vpairwise
p3177
sI3202
Vpale
p3178
sI3203
Vpalely
p3179
sI3204
Vpalustris
p3180
sI3205
Vparadoxical
p3181
sI3206
Vparameterized
p3182
sI3207
Vparasitic
p3183
sI3208
Vparasitism
p3184
sI3209
Vparenchymal
p3185
sI3210
Vparent
p3186
sI3211
Vpartial
p3187
sI3212
Vpartially
p3188
sI3213
Vparticipate
p3189
sI3214
Vparticipation
p3190
sI3215
Vparticular
p3191
sI3216
Vpath
p3192
sI3217
Vpathogens
p3193
sI3218
Vpattern
p3194
sI3219
Vpeak
p3195
sI3220
Vpectic
p3196
sI3221
Vpenetration
p3197
sI3222
Vpentose
p3198
sI3223
Vperenne
p3199
sI3224
Vpermeability
p3200
sI3225
Vpermit
p3201
sI3226
Vperoxidase
p3202
sI3227
Vpervious
p3203
sI3228
Vpests
p3204
sI3229
Vpetals
p3205
sI3230
Vpetraea
p3206
sI3231
Vpharmacological
p3207
sI3232
Vphenolics
p3208
sI3233
Vphenomenon
p3209
sI3234
Vphenotypes
p3210
sI3235
Vphenotyping
p3211
sI3236
Vphosphorylating
p3212
sI3237
Vphoto)respiration
p3213
sI3238
Vphotoperiodic
p3214
sI3239
Vphotorespiration
p3215
sI3240
Vphotosynthesis-/chloroplast
p3216
sI3241
Vphragmoplast
p3217
sI3242
Vphylogenetic
p3218
sI3243
Vphylogenetically
p3219
sI3244
Vphylogenetics
p3220
sI3245
Vphysiologically
p3221
sI3246
Vphytochrome
p3222
sI3247
Vphytodienoic
p3223
sI3248
Vphytohormonal
p3224
sI3249
Vphytosphingosine
p3225
sI3250
Vpigmented
p3226
sI3251
Vpioneers
p3227
sI3252
Vpits
p3228
sI3253
Vplaced
p3229
sI3254
Vplasmodesmata
p3230
sI3255
Vplastid
p3231
sI3256
Vplastids
p3232
sI3257
Vplate
p3233
sI3258
Vplayed
p3234
sI3259
Vplayer
p3235
sI3260
Vpolyacrylamide
p3236
sI3261
Vpolyethylene
p3237
sI3262
Vpolymorphisms
p3238
sI3263
Vpolyphyletic
p3239
sI3264
Vpolyploidy
p3240
sI3265
Vpool
p3241
sI3266
Vpools
p3242
sI3267
Vpore
p3243
sI3268
Vpores
p3244
sI3269
Vportions
p3245
sI3270
Vpositional
p3246
sI3271
Vpositioned
p3247
sI3272
Vpositively
p3248
sI3273
Vpossessed
p3249
sI3274
Vpossesses
p3250
sI3275
Vpotato
p3251
sI3276
Vpotent
p3252
sI3277
Vpractices
p3253
sI3278
Vpreceded
p3254
sI3279
Vprecultured
p3255
sI3280
Vpredates
p3256
sI3281
Vpredicts
p3257
sI3282
Vpredisposition
p3258
sI3283
Vpreformed
p3259
sI3284
Vpreinfected
p3260
sI3285
Vprevalent
p3261
sI3286
Vprevention
p3262
sI3287
Vprevents
p3263
sI3288
Vprimer
p3264
sI3289
Vprimers
p3265
sI3290
Vprimordium
p3266
sI3291
Vprized
p3267
sI3292
Vprobable
p3268
sI3293
Vprobe
p3269
sI3294
Vprocessing
p3270
sI3295
Vproduct
p3271
sI3296
Vproducts
p3272
sI3297
Vprofoundly
p3273
sI3298
Vprogressively
p3274
sI3299
Vprolonged
p3275
sI3300
Vpromises
p3276
sI3301
Vpromising
p3277
sI3302
Vpromoted
p3278
sI3303
Vpromoters
p3279
sI3304
Vpronounced
p3280
sI3305
Vprotease
p3281
sI3306
Vprotect
p3282
sI3307
Vprotects
p3283
sI3308
Vprotein(s
p3284
sI3309
Vproteinase
p3285
sI3310
Vprotoplastic
p3286
sI3311
Vprovided
p3287
sI3312
Vproxy
p3288
sI3313
Vpseudoplatanus
p3289
sI3314
Vpulse
p3290
sI3315
Vpurely
p3291
sI3316
Vpurifying
p3292
sI3317
Vpuzzle
p3293
sI3318
Vpv.
p3294
sI3319
VqCdT0
p3295
sI3320
Vquadruple
p3296
sI3321
Vqualitative
p3297
sI3322
Vquantify
p3298
sI3323
Vquantum
p3299
sI3324
Vquasi
p3300
sI3325
Vquercetin
p3301
sI3326
Vquercetins
p3302
sI3327
Vquotient
p3303
sI3328
Vranged
p3304
sI3329
Vranging
p3305
sI3330
Vranking
p3306
sI3331
Vranks
p3307
sI3332
Vrapeseed
p3308
sI3333
Vrapidly
p3309
sI3334
Vrare
p3310
sI3335
Vrather
p3311
sI3336
Vray
p3312
sI3337
Vre
p3313
sI3338
Vreach
p3314
sI3339
Vreacted
p3315
sI3340
Vreadout
p3316
sI3341
Vrealistic
p3317
sI3342
Vrealm
p3318
sI3343
Vrearrangement
p3319
sI3344
Vreasons
p3320
sI3345
Vreceive
p3321
sI3346
Vrecessive
p3322
sI3347
Vrecognition
p3323
sI3348
Vrecognized
p3324
sI3349
Vrecommended
p3325
sI3350
Vrecorder
p3326
sI3351
Vrecover
p3327
sI3352
Vrecovered
p3328
sI3353
Vrectifying
p3329
sI3354
Vrecurrently
p3330
sI3355
Vredox
p3331
sI3356
Vreduces
p3332
sI3357
Vreductions
p3333
sI3358
Vreferenced
p3334
sI3359
Vrefixation
p3335
sI3360
Vreflection
p3336
sI3361
Vregardless
p3337
sI3362
Vregards
p3338
sI3363
Vregeneration
p3339
sI3364
Vregulating
p3340
sI3365
Vregulator
p3341
sI3366
Vregulons
p3342
sI3367
Vreinforce
p3343
sI3368
Vrelates
p3344
sI3369
Vrelatively
p3345
sI3370
Vreleased
p3346
sI3371
Vrelevance
p3347
sI3372
Vrelevant
p3348
sI3373
Vreliance
p3349
sI3374
Vreplacement
p3350
sI3375
Vreplicate
p3351
sI3376
Vreplicated
p3352
sI3377
Vrepresented
p3353
sI3378
Vrepresenting
p3354
sI3379
Vrepresents
p3355
sI3380
Vrescue
p3356
sI3381
Vresembles
p3357
sI3382
Vresilience
p3358
sI3383
Vresist
p3359
sI3384
Vresolve
p3360
sI3385
Vresolving
p3361
sI3386
Vrespired
p3362
sI3387
Vresponsible
p3363
sI3388
Vrest
p3364
sI3389
Vrestored
p3365
sI3390
Vresultant
p3366
sI3391
Vresulting
p3367
sI3392
Vretardation
p3368
sI3393
Vretrieved
p3369
sI3394
Vreveal
p3370
sI3395
Vrevealing
p3371
sI3396
Vreversed
p3372
sI3397
Vrhizobial
p3373
sI3398
Vribulose
p3374
sI3399
Vrich
p3375
sI3400
Vrings
p3376
sI3401
Vrise
p3377
sI3402
Vrisk
p3378
sI3403
Vroadmap
p3379
sI3404
Vrobustness
p3380
sI3405
Vroll
p3381
sI3406
Vroom
p3382
sI3407
Vrosid
p3383
sI3408
Vsacs
p3384
sI3409
Vsalicylhydroxamic
p3385
sI3410
Vsaline
p3386
sI3411
Vsalinity
p3387
sI3412
Vsample
p3388
sI3413
Vsamples
p3389
sI3414
Vsampling
p3390
sI3415
Vsand
p3391
sI3416
Vsap
p3392
sI3417
Vsavannas
p3393
sI3418
Vscaled
p3394
sI3419
Vscales
p3395
sI3420
Vscavenge
p3396
sI3421
Vscientific
p3397
sI3422
Vscreened
p3398
sI3423
Vscreening
p3399
sI3424
Vse
p3400
sI3425
Vsecond
p3401
sI3426
Vsections
p3402
sI3427
Vsectored
p3403
sI3428
Vseeds
p3404
sI3429
Vsegmental
p3405
sI3430
Vsegments
p3406
sI3431
Vselect
p3407
sI3432
Vselecting
p3408
sI3433
Vselectively
p3409
sI3434
Vsense
p3410
sI3435
Vsensing
p3411
sI3436
Vsensor
p3412
sI3437
Vsensors
p3413
sI3438
Vsensu
p3414
sI3439
Vseparately
p3415
sI3440
Vseries
p3416
sI3441
Vserpin
p3417
sI3442
Vserve
p3418
sI3443
Vsesquiterpene
p3419
sI3444
Vsesquiterpenoid
p3420
sI3445
Vsettings
p3421
sI3446
Vsevere
p3422
sI3447
Vsexual
p3423
sI3448
Vshaded
p3424
sI3449
Vshading
p3425
sI3450
Vsharp
p3426
sI3451
Vsheath
p3427
sI3452
Vshifts
p3428
sI3453
Vshort-
p3429
sI3454
Vshortages
p3430
sI3455
Vshrink
p3431
sI3456
Vshrub
p3432
sI3457
Vsieved
p3433
sI3458
Vsignatures
p3434
sI3459
Vsignificance
p3435
sI3460
Vsigns
p3436
sI3461
Vsimple
p3437
sI3462
Vsimulated
p3438
sI3463
Vsimultaneously
p3439
sI3464
Vsized
p3440
sI3465
Vskp0
p3441
sI3466
Vslices
p3442
sI3467
Vslow
p3443
sI3468
Vslowed
p3444
sI3469
Vsoaked
p3445
sI3470
Vsolely
p3446
sI3471
Vsolute
p3447
sI3472
Vsolution
p3448
sI3473
Vsolving
p3449
sI3474
Vsorghum
p3450
sI3475
Vsources
p3451
sI3476
Vsouthern
p3452
sI3477
Vspace
p3453
sI3478
Vspanning
p3454
sI3479
Vspatially
p3455
sI3480
Vspecialist
p3456
sI3481
Vspecially
p3457
sI3482
Vspeciation
p3458
sI3483
Vspeck
p3459
sI3484
Vsphingolipids
p3460
sI3485
Vspindles
p3461
sI3486
Vspontaneum
p3462
sI3487
Vspring
p3463
sI3488
Vstabilization
p3464
sI3489
Vstably
p3465
sI3490
Vstainings
p3466
sI3491
Vstains
p3467
sI3492
Vstand
p3468
sI3493
Vstaple
p3469
sI3494
Vstatic
p3470
sI3495
Vstatistically
p3471
sI3496
Vstems
p3472
sI3497
Vsteps
p3473
sI3498
Vsterile
p3474
sI3499
Vsterility
p3475
sI3500
Vstill
p3476
sI3501
Vstimuli
p3477
sI3502
Vstocks
p3478
sI3503
Vstoichiometric
p3479
sI3504
Vstomata
p3480
sI3505
Vstored
p3481
sI3506
Vstrainxplant
p3482
sI3507
Vstressed
p3483
sI3508
Vstressors
p3484
sI3509
Vstrict
p3485
sI3510
Vstricto
p3486
sI3511
Vstroma
p3487
sI3512
Vstronger
p3488
sI3513
Vstructures
p3489
sI3514
Vstudying
p3490
sI3515
Vsubsequent
p3491
sI3516
Vsubsequently
p3492
sI3517
Vsubstantial
p3493
sI3518
Vsubstantive
p3494
sI3519
Vsubtractive
p3495
sI3520
Vsuffer
p3496
sI3521
Vsuffered
p3497
sI3522
Vsufficient
p3498
sI3523
Vsuitability
p3499
sI3524
Vsummer
p3500
sI3525
Vsuperoxide
p3501
sI3526
Vsupplies
p3502
sI3527
Vsupporting
p3503
sI3528
Vsuppress
p3504
sI3529
Vsurprisingly
p3505
sI3530
Vsurrounded
p3506
sI3531
Vsurrounding
p3507
sI3532
Vsurvive
p3508
sI3533
Vsusceptibility
p3509
sI3534
Vsusceptible
p3510
sI3535
Vsustained
p3511
sI3536
Vswitch
p3512
sI3537
Vswitched
p3513
sI3538
Vsycamore
p3514
sI3539
Vsylvestris
p3515
sI3540
Vsymbionts
p3516
sI3541
Vsymbioses
p3517
sI3542
Vsymplastic
p3518
sI3543
Vsymptom
p3519
sI3544
Vsynchronization
p3520
sI3545
Vsynchrotron
p3521
sI3546
Vsyndromes
p3522
sI3547
Vsynthesized
p3523
sI3548
Vsyringae
p3524
sI3549
Vsystemic
p3525
sI3550
Vtabacum
p3526
sI3551
Vtagged
p3527
sI3552
Vtake
p3528
sI3553
Vtaken
p3529
sI3554
Vtaxa
p3530
sI3555
Vtend
p3531
sI3556
Vtermination
p3532
sI3557
Vterpene
p3533
sI3558
Vterpenoid
p3534
sI3559
Vterrestrial
p3535
sI3560
Vtertiolecta
p3536
sI3561
Vtesta
p3537
sI3562
Vtestable
p3538
sI3563
Vtests
p3539
sI3564
Vtfl0
p3540
sI3565
Vtheory
p3541
sI3566
Vthereby
p3542
sI3567
Vthermal
p3543
sI3568
Vthermotolerance
p3544
sI3569
Vthick
p3545
sI3570
Vthickness
p3546
sI3571
Vthought
p3547
sI3572
Vthreat
p3548
sI3573
Vthroughout
p3549
sI3574
Vthus
p3550
sI3575
Vtightly
p3551
sI3576
Vtolerant
p3552
sI3577
Vtolerants
p3553
sI3578
Vtolerate
p3554
sI3579
Vtonoplast
p3555
sI3580
Vtoo
p3556
sI3581
Vtook
p3557
sI3582
Vtop
p3558
sI3583
Vtoward
p3559
sI3584
Vtrace
p3560
sI3585
Vtracer
p3561
sI3586
Vtracheid
p3562
sI3587
Vtrack
p3563
sI3588
Vtracked
p3564
sI3589
Vtractable
p3565
sI3590
Vtranscriptomics
p3566
sI3591
Vtransduce
p3567
sI3592
Vtransferase
p3568
sI3593
Vtransformants
p3569
sI3594
Vtransgene
p3570
sI3595
Vtransgenes
p3571
sI3596
Vtransients
p3572
sI3597
Vtransparent
p3573
sI3598
Vtranspirative
p3574
sI3599
Vtranspiring
p3575
sI3600
Vtransportation
p3576
sI3601
Vtransporting
p3577
sI3602
Vtransposable
p3578
sI3603
Vtrehalose
p3579
sI3604
Vtrends
p3580
sI3605
Vtrials
p3581
sI3606
Vtribe
p3582
sI3607
Vtricarboxylic
p3583
sI3608
Vtrichocarpa
p3584
sI3609
Vtriggered
p3585
sI3610
Vtriggering
p3586
sI3611
Vtriphosphate
p3587
sI3612
Vtrunk
p3588
sI3613
Vtt
p3589
sI3614
Vturn
p3590
sI3615
Vturnover
p3591
sI3616
Vtwice
p3592
sI3617
Vtypical
p3593
sI3618
Vubiquitous
p3594
sI3619
Vubiquitously
p3595
sI3620
Vunable
p3596
sI3621
Vunaffected
p3597
sI3622
Vuncertainty
p3598
sI3623
Vunclear
p3599
sI3624
Vundergone
p3600
sI3625
Vunderlies
p3601
sI3626
Vunderscored
p3602
sI3627
Vunextractable
p3603
sI3628
Vunicellular
p3604
sI3629
Vunidentified
p3605
sI3630
Vuniform
p3606
sI3631
Vuninfected
p3607
sI3632
Vunits
p3608
sI3633
Vunstable
p3609
sI3634
Vuntransgenic
p3610
sI3635
Vupstream
p3611
sI3636
Vuse-
p3612
sI3637
Vuseful
p3613
sI3638
Vusual
p3614
sI3639
Vutility
p3615
sI3640
Vutilization
p3616
sI3641
Vutilize
p3617
sI3642
Vutilizing
p3618
sI3643
Vvacuole
p3619
sI3644
Vvalid
p3620
sI3645
Vvalidated
p3621
sI3646
Vvalidation
p3622
sI3647
Vvalidity
p3623
sI3648
Vvaluable
p3624
sI3649
Vvalue
p3625
sI3650
Vvar.
p3626
sI3651
Vvariables
p3627
sI3652
Vvariance
p3628
sI3653
Vvarying
p3629
sI3654
Vvasculature
p3630
sI3655
Vversatile
p3631
sI3656
Vvertical
p3632
sI3657
Vvery
p3633
sI3658
Vvesicle
p3634
sI3659
Vview
p3635
sI3660
Vvirulence
p3636
sI3661
Vviruses
p3637
sI3662
Vvisible
p3638
sI3663
Vvitro
p3639
sI3664
Vvolatile
p3640
sI3665
Vvolkameriana
p3641
sI3666
Vvoltage
p3642
sI3667
Vvolume
p3643
sI3668
Vvulgaris
p3644
sI3669
Vwasp
p3645
sI3670
Vweekly
p3646
sI3671
Vweighed
p3647
sI3672
Vweight
p3648
sI3673
Vwilting
p3649
sI3674
Vwithdrawal
p3650
sI3675
Vwithholding
p3651
sI3676
Vwk
p3652
sI3677
Vwoody
p3653
sI3678
Vworld
p3654
sI3679
Vwounded
p3655
sI3680
Vxylogenesis
p3656
sI3681
Vxylostella
p3657
sI3682
Vyears
p3658
sI3683
Vyeast
p3659
sI3684
Vzone
p3660
sI3685
V-0.00
p3661
sI3686
VAlignment
p3662
sI3687
VAlterations
p3663
sI3688
VAmmonium
p3664
sI3689
VB0b
p3665
sI3690
VBINDING
p3666
sI3691
VBritain
p3667
sI3692
VBut
p3668
sI3693
VCBFs
p3669
sI3694
VCellular
p3670
sI3695
VCl-
p3671
sI3696
VConversely
p3672
sI3697
VCu
p3673
sI3698
VCytospora
p3674
sI3699
VDW
p3675
sI3700
VDatabase
p3676
sI3701
VDual
p3677
sI3702
VEach
p3678
sI3703
VEcological
p3679
sI3704
VEnhanced
p3680
sI3705
VEvans
p3681
sI3706
VExogenous
p3682
sI3707
VExtraradical
p3683
sI3708
VFACTOR
p3684
sI3709
VFINGER
p3685
sI3710
VFew
p3686
sI3711
VGSTs
p3687
sI3712
VGas
p3688
sI3713
VH00
p3689
sI3714
VHS
p3690
sI3715
VHerbivore
p3691
sI3716
VHyperaccumulators
p3692
sI3717
VIdentification
p3693
sI3718
VInfection
p3694
sI3719
VKey
p3695
sI3720
VLarge
p3696
sI3721
VMbp
p3697
sI3722
VMembrane
p3698
sI3723
VMet
p3699
sI3724
VModern
p3700
sI3725
VNitric
p3701
sI3726
VOSCs
p3702
sI3727
VOn
p3703
sI3728
VOverexpression
p3704
sI3729
VParental
p3705
sI3730
VPb
p3706
sI3731
VPharmacological
p3707
sI3732
VPhaseolus
p3708
sI3733
VPigment
p3709
sI3734
VPlasma
p3710
sI3735
VREPEAT
p3711
sI3736
VReducing
p3712
sI3737
VRho
p3713
sI3738
VRice
p3714
sI3739
VSalicylic
p3715
sI3740
VSeed
p3716
sI3741
VShoot
p3717
sI3742
VSinorhizobium
p3718
sI3743
VSmall
p3719
sI3744
VSubmergence
p3720
sI3745
VSuch
p3721
sI3746
VTYPE
p3722
sI3747
VTraits
p3723
sI3748
VTriterpenes
p3724
sI3749
VVal
p3725
sI3750
VValues
p3726
sI3751
VXanthomonas
p3727
sI3752
VXoo
p3728
sI3753
VYet
p3729
sI3754
VZINC
p3730
sI3755
Vacids
p3731
sI3756
Vacted
p3732
sI3757
Vactively
p3733
sI3758
Vacts
p3734
sI3759
Vactually
p3735
sI3760
Vadded
p3736
sI3761
Vadhesion
p3737
sI3762
Vadvantageous
p3738
sI3763
Valcohol
p3739
sI3764
Valeurone
p3740
sI3765
Valkali
p3741
sI3766
Valkalization
p3742
sI3767
Vallene
p3743
sI3768
Valters
p3744
sI3769
Vamplified
p3745
sI3770
Vanabolism
p3746
sI3771
Vanamorph
p3747
sI3772
Vanatomy
p3748
sI3773
Vancestor
p3749
sI3774
Vancient
p3750
sI3775
Vanimal
p3751
sI3776
Vanswer
p3752
sI3777
Vapprox
p3753
sI3778
Vasking
p3754
sI3779
Vaspartic
p3755
sI3780
Vaspect
p3756
sI3781
Vassisted
p3757
sI3782
Vassumed
p3758
sI3783
Vattenuating
p3759
sI3784
Vautotrophic
p3760
sI3785
Vavailabilities
p3761
sI3786
Vaxis
p3762
sI3787
Vazide
p3763
sI3788
Vback
p3764
sI3789
Vbank
p3765
sI3790
Vbenzoxazine
p3766
sI3791
Vbiomarker
p3767
sI3792
Vblight
p3768
sI3793
Vblue
p3769
sI3794
Vboost
p3770
sI3795
Vbottom
p3771
sI3796
Vbuffer
p3772
sI3797
Vbuilding
p3773
sI3798
Vcanker
p3774
sI3799
Vcarried
p3775
sI3800
Vcatalyses
p3776
sI3801
Vchamber
p3777
sI3802
Vchemotype
p3778
sI3803
Vcircumstances
p3779
sI3804
Vclassic
p3780
sI3805
Vclear
p3781
sI3806
Vclone
p3782
sI3807
Vclosed
p3783
sI3808
Vcoastal
p3784
sI3809
Vcommitted
p3785
sI3810
Vcommonly
p3786
sI3811
Vcompact
p3787
sI3812
Vcompare
p3788
sI3813
Vcomparisons
p3789
sI3814
Vcompensate
p3790
sI3815
Vconclusions
p3791
sI3816
Vconductances
p3792
sI3817
Vconferring
p3793
sI3818
Vconfirms
p3794
sI3819
Vconfounded
p3795
sI3820
Vconjugation
p3796
sI3821
Vconstancy
p3797
sI3822
Vconstraints
p3798
sI3823
Vcontinues
p3799
sI3824
Vcontributes
p3800
sI3825
Vcontributor
p3801
sI3826
Vcorn
p3802
sI3827
Vcornerstone
p3803
sI3828
Vcorniculatus
p3804
sI3829
Vcost
p3805
sI3830
Vcovaried
p3806
sI3831
Vcross
p3807
sI3832
Vcrosstalk
p3808
sI3833
Vcultivated
p3809
sI3834
Vcuticular
p3810
sI3835
Vcyclase
p3811
sI3836
Vcyclases
p3812
sI3837
Vcyclization
p3813
sI3838
Vcytoskeletal
p3814
sI3839
Vdecoupled
p3815
sI3840
Vdefects
p3816
sI3841
Vdefense
p3817
sI3842
Vdefenses
p3818
sI3843
Vdefinitive
p3819
sI3844
Vdeltoides
p3820
sI3845
Vderivatives
p3821
sI3846
Vdesignated
p3822
sI3847
Vdiel
p3823
sI3848
Vdisciplines
p3824
sI3849
Vdisintegration
p3825
sI3850
Vdisrupt
p3826
sI3851
Vdistributed
p3827
sI3852
Vdisulphide
p3828
sI3853
Vdo
p3829
sI3854
Vdown
p3830
sI3855
Vdrag
p3831
sI3856
Vdrives
p3832
sI3857
Vdysfunction
p3833
sI3858
Velement
p3834
sI3859
Velicitor
p3835
sI3860
Velongate
p3836
sI3861
Velongated
p3837
sI3862
Vemphasizes
p3838
sI3863
Vendosperm
p3839
sI3864
Venlarged
p3840
sI3865
Venvelope
p3841
sI3866
Venzymatic
p3842
sI3867
Vequilibrium
p3843
sI3868
Vethephon
p3844
sI3869
Vevergreens
p3845
sI3870
Vexcluding
p3846
sI3871
Vexclusively
p3847
sI3872
Vexerted
p3848
sI3873
Vfact
p3849
sI3874
Vfar
p3850
sI3875
Vfemales
p3851
sI3876
Vfix
p3852
sI3877
Vflavonoids
p3853
sI3878
Vfrequency
p3854
sI3879
Vfruits
p3855
sI3880
Vgave
p3856
sI3881
Vgeneralize
p3857
sI3882
Vgenic
p3858
sI3883
Vglomerata
p3859
sI3884
Vgrassland
p3860
sI3885
Vhaemoglobin
p3861
sI3886
Vhaving
p3862
sI3887
Vhemoglobin
p3863
sI3888
Vhence
p3864
sI3889
Vhighlight
p3865
sI3890
Vhomologous
p3866
sI3891
Vhortorum
p3867
sI3892
Vhydrogenases
p3868
sI3893
Videa
p3869
sI3894
Vinactivation
p3870
sI3895
Vinclude
p3871
sI3896
Vincomplete
p3872
sI3897
Vinfer
p3873
sI3898
Vinflorescence
p3874
sI3899
Vinflorescences
p3875
sI3900
Vinsufficient
p3876
sI3901
Vintensive
p3877
sI3902
Vinterfere
p3878
sI3903
Vintermediate
p3879
sI3904
Vinterpret
p3880
sI3905
Vinvolving
p3881
sI3906
Virrespective
p3882
sI3907
Vlaboratories
p3883
sI3908
Vlabour
p3884
sI3909
Vlater
p3885
sI3910
Vlayer
p3886
sI3911
Vlimitations
p3887
sI3912
Vlipid
p3888
sI3913
Vlongitudinal
p3889
sI3914
Vlot
p3890
sI3915
Vmanganese
p3891
sI3916
Vmanifested
p3892
sI3917
Vmap
p3893
sI3918
Vmargins
p3894
sI3919
Vmassive
p3895
sI3920
Vmaturation
p3896
sI3921
Vmeasurement
p3897
sI3922
Vmechanical
p3898
sI3923
Vmerge
p3899
sI3924
Vmetals
p3900
sI3925
Vmillimolar
p3901
sI3926
Vminiature
p3902
sI3927
Vminimal
p3903
sI3928
Vminutes
p3904
sI3929
Vmodulation
p3905
sI3930
Vmostly
p3906
sI3931
Vmycelia
p3907
sI3932
Vnational
p3908
sI3933
Vnetworks
p3909
sI3934
Vng
p3910
sI3935
Vnodulated
p3911
sI3936
Vnonnegligible
p3912
sI3937
Vnonselective
p3913
sI3938
Vnoted
p3914
sI3939
Voccupy
p3915
sI3940
Vonset
p3916
sI3941
Voperating
p3917
sI3942
Voptima
p3918
sI3943
Vordinated
p3919
sI3944
Vorganized
p3920
sI3945
Voryzae
p3921
sI3946
Voutbreak
p3922
sI3947
Voverlooked
p3923
sI3948
Voviposition
p3924
sI3949
Vpaper
p3925
sI3950
Vparticipates
p3926
sI3951
Vpassive
p3927
sI3952
Vpathogen
p3928
sI3953
Vpathosystem
p3929
sI3954
Vpedicels
p3930
sI3955
Vperforming
p3931
sI3956
Vpetioles
p3932
sI3957
Vphosphatidic
p3933
sI3958
Vphosphorylation
p3934
sI3959
Vphotophosphorylation
p3935
sI3960
Vplanted
p3936
sI3961
Vplus
p3937
sI3962
Vpointing
p3938
sI3963
Vpolarized
p3939
sI3964
Vpolymorphism
p3940
sI3965
Vpooling
p3941
sI3966
Vpossibly
p3942
sI3967
Vpostulated
p3943
sI3968
Vpredictable
p3944
sI3969
Vpredicting
p3945
sI3970
Vpredictions
p3946
sI3971
Vpreferential
p3947
sI3972
Vpreferentially
p3948
sI3973
Vprevented
p3949
sI3974
Vproanthocyanidins
p3950
sI3975
Vprograms
p3951
sI3976
Vprogression
p3952
sI3977
Vpromotion
p3953
sI3978
Vproper
p3954
sI3979
Vprotection
p3955
sI3980
Vputative
p3956
sI3981
Vquestions
p3957
sI3982
Vrecombinant
p3958
sI3983
Vreflects
p3959
sI3984
Vreforestation
p3960
sI3985
Vrelatives
p3961
sI3986
Vreleasing
p3962
sI3987
Vremodels
p3963
sI3988
Vreports
p3964
sI3989
Vrequire
p3965
sI3990
Vrescued
p3966
sI3991
Vresemble
p3967
sI3992
Vresided
p3968
sI3993
Vresponding
p3969
sI3994
Vrhythmically
p3970
sI3995
Vrising
p3971
sI3996
Vroute
p3972
sI3997
Vrufipogon
p3973
sI3998
Vsac
p3974
sI3999
Vscant
p3975
sI4000
Vsearch
p3976
sI4001
Vseem
p3977
sI4002
Vseparating
p3978
sI4003
Vshare
p3979
sI4004
Vshortened
p3980
sI4005
Vshorter
p3981
sI4006
Vsimilarly
p3982
sI4007
Vsimplified
p3983
sI4008
Vsince
p3984
sI4009
Vsizes
p3985
sI4010
Vslows
p3986
sI4011
Vsmut
p3987
sI4012
Vsolvent
p3988
sI4013
Vspaces
p3989
sI4014
Vspecifically
p3990
sI4015
Vsphingolipid
p3991
sI4016
Vspontaneous
p3992
sI4017
Vstands
p3993
sI4018
Vstepwise
p3994
sI4019
Vstimulate
p3995
sI4020
Vstimulatory
p3996
sI4021
Vstore
p3997
sI4022
Vstream
p3998
sI4023
Vstrictly
p3999
sI4024
Vstripes
p4000
sI4025
Vstructuring
p4001
sI4026
Vsubset
p4002
sI4027
Vsugarcane
p4003
sI4028
Vsulphate
p4004
sI4029
Vsulphur
p4005
sI4030
Vsupported
p4006
sI4031
Vsuppresses
p4007
sI4032
Vsuspension
p4008
sI4033
Vsustain
p4009
sI4034
Vtaking
p4010
sI4035
Vtenuis
p4011
sI4036
Vtheoretical
p4012
sI4037
Vthermosensitive
p4013
sI4038
Vtranscriptionally
p4014
sI4039
Vtransporters
p4015
sI4040
Vtumors
p4016
sI4041
Vultimately
p4017
sI4042
Vunavailable
p4018
sI4043
Vunderlie
p4019
sI4044
Vunlimited
p4020
sI4045
Vvariegation
p4021
sI4046
Vverification
p4022
sI4047
Vwax
p4023
sI4048
Vx
ss.